; ModuleID = '/D/xilinx_workspace/test_direct_dma/solution1/.autopilot/db/a.o.3.bc'
target datalayout = "e-p:64:64:64-i1:8:8-i8:8:8-i16:16:16-i32:32:32-i64:64:64-f32:32:32-f64:64:64-v64:64:64-v128:128:128-a0:0:64-s0:64:64-f80:128:128-n8:16:32:64-S128"
target triple = "x86_64-unknown-linux-gnu"

@p_str = private unnamed_addr constant [8 x i8] c"ap_none\00", align 1 ; [#uses=4 type=[8 x i8]*]
@p_str1 = private unnamed_addr constant [1 x i8] zeroinitializer, align 1 ; [#uses=45 type=[1 x i8]*]
@p_str2 = private unnamed_addr constant [5 x i8] c"axis\00", align 1 ; [#uses=4 type=[5 x i8]*]
@p_str3 = private unnamed_addr constant [10 x i8] c"s_axilite\00", align 1 ; [#uses=4 type=[10 x i8]*]
@p_str4 = private unnamed_addr constant [7 x i8] c"ap_vld\00", align 1 ; [#uses=3 type=[7 x i8]*]
@llvm_global_ctors_0 = appending global [1 x i32] [i32 65535] ; [#uses=0 type=[1 x i32]*]
@llvm_global_ctors_1 = appending global [1 x void ()*] [void ()* @_GLOBAL__I_a] ; [#uses=0 type=[1 x void ()*]*]
@str = internal constant [16 x i8] c"test_direct_dma\00" ; [#uses=1 type=[16 x i8]*]

; [#uses=0]
define i32 @test_direct_dma(i72* %read_mover_V_V, i72* %write_mover_V_V, i128* %in_stream_V_V, i128* %out_stream_V_V, i32 %sourceAddress, i32 %destinationAddress, i32 %length, i1* %read_mover_halt, i1* %read_mover_halt_complete, i1* %write_mover_halt, i1* %write_mover_halt_complete) {
  call void (...)* @_ssdm_op_SpecBitsMap(i72* %read_mover_V_V), !map !7
  call void (...)* @_ssdm_op_SpecBitsMap(i72* %write_mover_V_V), !map !11
  call void (...)* @_ssdm_op_SpecBitsMap(i128* %in_stream_V_V), !map !15
  call void (...)* @_ssdm_op_SpecBitsMap(i128* %out_stream_V_V), !map !19
  call void (...)* @_ssdm_op_SpecBitsMap(i32 %sourceAddress), !map !23
  call void (...)* @_ssdm_op_SpecBitsMap(i32 %destinationAddress), !map !29
  call void (...)* @_ssdm_op_SpecBitsMap(i32 %length), !map !33
  call void (...)* @_ssdm_op_SpecBitsMap(i1* %read_mover_halt), !map !37
  call void (...)* @_ssdm_op_SpecBitsMap(i1* %read_mover_halt_complete), !map !41
  call void (...)* @_ssdm_op_SpecBitsMap(i1* %write_mover_halt), !map !45
  call void (...)* @_ssdm_op_SpecBitsMap(i1* %write_mover_halt_complete), !map !49
  call void (...)* @_ssdm_op_SpecBitsMap(i32 0) nounwind, !map !53
  call void (...)* @_ssdm_op_SpecTopModule([16 x i8]* @str) nounwind
  %length_read = call i32 @_ssdm_op_Read.ap_vld.i32(i32 %length) ; [#uses=1 type=i32]
  call void @llvm.dbg.value(metadata !{i32 %length_read}, i64 0, metadata !59), !dbg !2274 ; [debug line = 11:87] [debug variable = length]
  call void @llvm.dbg.value(metadata !{i32 %length_read}, i64 0, metadata !59), !dbg !2274 ; [debug line = 11:87] [debug variable = length]
  call void @llvm.dbg.value(metadata !{i32 %length_read}, i64 0, metadata !59), !dbg !2274 ; [debug line = 11:87] [debug variable = length]
  call void @llvm.dbg.value(metadata !{i32 %length_read}, i64 0, metadata !59), !dbg !2274 ; [debug line = 11:87] [debug variable = length]
  call void @llvm.dbg.value(metadata !{i32 %length_read}, i64 0, metadata !59), !dbg !2274 ; [debug line = 11:87] [debug variable = length]
  call void @llvm.dbg.value(metadata !{i32 %length_read}, i64 0, metadata !59), !dbg !2274 ; [debug line = 11:87] [debug variable = length]
  call void @llvm.dbg.value(metadata !{i32 %length_read}, i64 0, metadata !59), !dbg !2274 ; [debug line = 11:87] [debug variable = length]
  call void @llvm.dbg.value(metadata !{i32 %length_read}, i64 0, metadata !59), !dbg !2274 ; [debug line = 11:87] [debug variable = length]
  call void @llvm.dbg.value(metadata !{i32 %length_read}, i64 0, metadata !59), !dbg !2274 ; [debug line = 11:87] [debug variable = length]
  call void @llvm.dbg.value(metadata !{i32 %length_read}, i64 0, metadata !59), !dbg !2274 ; [debug line = 11:87] [debug variable = length]
  call void @llvm.dbg.value(metadata !{i32 %length_read}, i64 0, metadata !59), !dbg !2274 ; [debug line = 11:87] [debug variable = length]
  call void @llvm.dbg.value(metadata !{i32 %length_read}, i64 0, metadata !59), !dbg !2274 ; [debug line = 11:87] [debug variable = length]
  %destinationAddress_read = call i32 @_ssdm_op_Read.ap_vld.i32(i32 %destinationAddress) ; [#uses=1 type=i32]
  call void @llvm.dbg.value(metadata !{i32 %destinationAddress_read}, i64 0, metadata !2275), !dbg !2276 ; [debug line = 11:54] [debug variable = destinationAddress]
  call void @llvm.dbg.value(metadata !{i32 %destinationAddress_read}, i64 0, metadata !2275), !dbg !2276 ; [debug line = 11:54] [debug variable = destinationAddress]
  call void @llvm.dbg.value(metadata !{i32 %destinationAddress_read}, i64 0, metadata !2275), !dbg !2276 ; [debug line = 11:54] [debug variable = destinationAddress]
  call void @llvm.dbg.value(metadata !{i32 %destinationAddress_read}, i64 0, metadata !2275), !dbg !2276 ; [debug line = 11:54] [debug variable = destinationAddress]
  call void @llvm.dbg.value(metadata !{i32 %destinationAddress_read}, i64 0, metadata !2275), !dbg !2276 ; [debug line = 11:54] [debug variable = destinationAddress]
  call void @llvm.dbg.value(metadata !{i32 %destinationAddress_read}, i64 0, metadata !2275), !dbg !2276 ; [debug line = 11:54] [debug variable = destinationAddress]
  call void @llvm.dbg.value(metadata !{i32 %destinationAddress_read}, i64 0, metadata !2275), !dbg !2276 ; [debug line = 11:54] [debug variable = destinationAddress]
  call void @llvm.dbg.value(metadata !{i32 %destinationAddress_read}, i64 0, metadata !2275), !dbg !2276 ; [debug line = 11:54] [debug variable = destinationAddress]
  call void @llvm.dbg.value(metadata !{i32 %destinationAddress_read}, i64 0, metadata !2275), !dbg !2276 ; [debug line = 11:54] [debug variable = destinationAddress]
  call void @llvm.dbg.value(metadata !{i32 %destinationAddress_read}, i64 0, metadata !2275), !dbg !2276 ; [debug line = 11:54] [debug variable = destinationAddress]
  call void @llvm.dbg.value(metadata !{i32 %destinationAddress_read}, i64 0, metadata !2275), !dbg !2276 ; [debug line = 11:54] [debug variable = destinationAddress]
  call void @llvm.dbg.value(metadata !{i32 %destinationAddress_read}, i64 0, metadata !2275), !dbg !2276 ; [debug line = 11:54] [debug variable = destinationAddress]
  %sourceAddress_read = call i32 @_ssdm_op_Read.ap_vld.i32(i32 %sourceAddress) ; [#uses=1 type=i32]
  call void @llvm.dbg.value(metadata !{i32 %sourceAddress_read}, i64 0, metadata !2277), !dbg !2278 ; [debug line = 11:21] [debug variable = sourceAddress]
  call void @llvm.dbg.value(metadata !{i32 %sourceAddress_read}, i64 0, metadata !2277), !dbg !2278 ; [debug line = 11:21] [debug variable = sourceAddress]
  call void @llvm.dbg.value(metadata !{i32 %sourceAddress_read}, i64 0, metadata !2277), !dbg !2278 ; [debug line = 11:21] [debug variable = sourceAddress]
  call void @llvm.dbg.value(metadata !{i32 %sourceAddress_read}, i64 0, metadata !2277), !dbg !2278 ; [debug line = 11:21] [debug variable = sourceAddress]
  call void @llvm.dbg.value(metadata !{i32 %sourceAddress_read}, i64 0, metadata !2277), !dbg !2278 ; [debug line = 11:21] [debug variable = sourceAddress]
  call void @llvm.dbg.value(metadata !{i32 %sourceAddress_read}, i64 0, metadata !2277), !dbg !2278 ; [debug line = 11:21] [debug variable = sourceAddress]
  call void @llvm.dbg.value(metadata !{i32 %sourceAddress_read}, i64 0, metadata !2277), !dbg !2278 ; [debug line = 11:21] [debug variable = sourceAddress]
  call void @llvm.dbg.value(metadata !{i32 %sourceAddress_read}, i64 0, metadata !2277), !dbg !2278 ; [debug line = 11:21] [debug variable = sourceAddress]
  call void @llvm.dbg.value(metadata !{i32 %sourceAddress_read}, i64 0, metadata !2277), !dbg !2278 ; [debug line = 11:21] [debug variable = sourceAddress]
  call void @llvm.dbg.value(metadata !{i32 %sourceAddress_read}, i64 0, metadata !2277), !dbg !2278 ; [debug line = 11:21] [debug variable = sourceAddress]
  call void @llvm.dbg.value(metadata !{i32 %sourceAddress_read}, i64 0, metadata !2277), !dbg !2278 ; [debug line = 11:21] [debug variable = sourceAddress]
  call void @llvm.dbg.value(metadata !{i32 %sourceAddress_read}, i64 0, metadata !2277), !dbg !2278 ; [debug line = 11:21] [debug variable = sourceAddress]
  %sourceAddress_assign = alloca i32, align 4     ; [#uses=3 type=i32*]
  %destinationAddress_assign = alloca i32, align 4 ; [#uses=3 type=i32*]
  %length_assign = alloca i32, align 4            ; [#uses=3 type=i32*]
  call void @llvm.dbg.value(metadata !{i72* %read_mover_V_V}, i64 0, metadata !2279), !dbg !2290 ; [debug line = 10:36] [debug variable = read_mover.V.V]
  call void @llvm.dbg.value(metadata !{i72* %write_mover_V_V}, i64 0, metadata !2291), !dbg !2293 ; [debug line = 10:63] [debug variable = write_mover.V.V]
  call void @llvm.dbg.value(metadata !{i128* %in_stream_V_V}, i64 0, metadata !2294), !dbg !2305 ; [debug line = 10:88] [debug variable = in_stream.V.V]
  call void @llvm.dbg.value(metadata !{i128* %out_stream_V_V}, i64 0, metadata !2306), !dbg !2308 ; [debug line = 10:111] [debug variable = out_stream.V.V]
  call void @llvm.dbg.value(metadata !{i32 %sourceAddress}, i64 0, metadata !2277), !dbg !2278 ; [debug line = 11:21] [debug variable = sourceAddress]
  call void @llvm.dbg.value(metadata !{i32 %sourceAddress}, i64 0, metadata !2277), !dbg !2278 ; [debug line = 11:21] [debug variable = sourceAddress]
  call void @llvm.dbg.value(metadata !{i32 %sourceAddress}, i64 0, metadata !2277), !dbg !2278 ; [debug line = 11:21] [debug variable = sourceAddress]
  call void @llvm.dbg.value(metadata !{i32 %sourceAddress}, i64 0, metadata !2277), !dbg !2278 ; [debug line = 11:21] [debug variable = sourceAddress]
  call void @llvm.dbg.value(metadata !{i32 %sourceAddress}, i64 0, metadata !2277), !dbg !2278 ; [debug line = 11:21] [debug variable = sourceAddress]
  call void @llvm.dbg.value(metadata !{i32 %sourceAddress}, i64 0, metadata !2277), !dbg !2278 ; [debug line = 11:21] [debug variable = sourceAddress]
  call void @llvm.dbg.value(metadata !{i32 %sourceAddress}, i64 0, metadata !2277), !dbg !2278 ; [debug line = 11:21] [debug variable = sourceAddress]
  call void @llvm.dbg.value(metadata !{i32 %sourceAddress}, i64 0, metadata !2277), !dbg !2278 ; [debug line = 11:21] [debug variable = sourceAddress]
  call void @llvm.dbg.value(metadata !{i32 %sourceAddress}, i64 0, metadata !2277), !dbg !2278 ; [debug line = 11:21] [debug variable = sourceAddress]
  call void @llvm.dbg.value(metadata !{i32 %sourceAddress}, i64 0, metadata !2277), !dbg !2278 ; [debug line = 11:21] [debug variable = sourceAddress]
  call void @llvm.dbg.value(metadata !{i32 %sourceAddress}, i64 0, metadata !2277), !dbg !2278 ; [debug line = 11:21] [debug variable = sourceAddress]
  call void @llvm.dbg.value(metadata !{i32 %sourceAddress}, i64 0, metadata !2277), !dbg !2278 ; [debug line = 11:21] [debug variable = sourceAddress]
  store volatile i32 %sourceAddress_read, i32* %sourceAddress_assign, align 4
  call void @llvm.dbg.value(metadata !{i32 %destinationAddress}, i64 0, metadata !2275), !dbg !2276 ; [debug line = 11:54] [debug variable = destinationAddress]
  call void @llvm.dbg.value(metadata !{i32 %destinationAddress}, i64 0, metadata !2275), !dbg !2276 ; [debug line = 11:54] [debug variable = destinationAddress]
  call void @llvm.dbg.value(metadata !{i32 %destinationAddress}, i64 0, metadata !2275), !dbg !2276 ; [debug line = 11:54] [debug variable = destinationAddress]
  call void @llvm.dbg.value(metadata !{i32 %destinationAddress}, i64 0, metadata !2275), !dbg !2276 ; [debug line = 11:54] [debug variable = destinationAddress]
  call void @llvm.dbg.value(metadata !{i32 %destinationAddress}, i64 0, metadata !2275), !dbg !2276 ; [debug line = 11:54] [debug variable = destinationAddress]
  call void @llvm.dbg.value(metadata !{i32 %destinationAddress}, i64 0, metadata !2275), !dbg !2276 ; [debug line = 11:54] [debug variable = destinationAddress]
  call void @llvm.dbg.value(metadata !{i32 %destinationAddress}, i64 0, metadata !2275), !dbg !2276 ; [debug line = 11:54] [debug variable = destinationAddress]
  call void @llvm.dbg.value(metadata !{i32 %destinationAddress}, i64 0, metadata !2275), !dbg !2276 ; [debug line = 11:54] [debug variable = destinationAddress]
  call void @llvm.dbg.value(metadata !{i32 %destinationAddress}, i64 0, metadata !2275), !dbg !2276 ; [debug line = 11:54] [debug variable = destinationAddress]
  call void @llvm.dbg.value(metadata !{i32 %destinationAddress}, i64 0, metadata !2275), !dbg !2276 ; [debug line = 11:54] [debug variable = destinationAddress]
  call void @llvm.dbg.value(metadata !{i32 %destinationAddress}, i64 0, metadata !2275), !dbg !2276 ; [debug line = 11:54] [debug variable = destinationAddress]
  call void @llvm.dbg.value(metadata !{i32 %destinationAddress}, i64 0, metadata !2275), !dbg !2276 ; [debug line = 11:54] [debug variable = destinationAddress]
  store volatile i32 %destinationAddress_read, i32* %destinationAddress_assign, align 4
  call void @llvm.dbg.value(metadata !{i32 %length}, i64 0, metadata !59), !dbg !2274 ; [debug line = 11:87] [debug variable = length]
  call void @llvm.dbg.value(metadata !{i32 %length}, i64 0, metadata !59), !dbg !2274 ; [debug line = 11:87] [debug variable = length]
  call void @llvm.dbg.value(metadata !{i32 %length}, i64 0, metadata !59), !dbg !2274 ; [debug line = 11:87] [debug variable = length]
  call void @llvm.dbg.value(metadata !{i32 %length}, i64 0, metadata !59), !dbg !2274 ; [debug line = 11:87] [debug variable = length]
  call void @llvm.dbg.value(metadata !{i32 %length}, i64 0, metadata !59), !dbg !2274 ; [debug line = 11:87] [debug variable = length]
  call void @llvm.dbg.value(metadata !{i32 %length}, i64 0, metadata !59), !dbg !2274 ; [debug line = 11:87] [debug variable = length]
  call void @llvm.dbg.value(metadata !{i32 %length}, i64 0, metadata !59), !dbg !2274 ; [debug line = 11:87] [debug variable = length]
  call void @llvm.dbg.value(metadata !{i32 %length}, i64 0, metadata !59), !dbg !2274 ; [debug line = 11:87] [debug variable = length]
  call void @llvm.dbg.value(metadata !{i32 %length}, i64 0, metadata !59), !dbg !2274 ; [debug line = 11:87] [debug variable = length]
  call void @llvm.dbg.value(metadata !{i32 %length}, i64 0, metadata !59), !dbg !2274 ; [debug line = 11:87] [debug variable = length]
  call void @llvm.dbg.value(metadata !{i32 %length}, i64 0, metadata !59), !dbg !2274 ; [debug line = 11:87] [debug variable = length]
  call void @llvm.dbg.value(metadata !{i32 %length}, i64 0, metadata !59), !dbg !2274 ; [debug line = 11:87] [debug variable = length]
  store volatile i32 %length_read, i32* %length_assign, align 4
  call void @llvm.dbg.value(metadata !{i1* %read_mover_halt}, i64 0, metadata !2309), !dbg !2310 ; [debug line = 12:18] [debug variable = read_mover_halt]
  call void @llvm.dbg.value(metadata !{i1* %read_mover_halt_complete}, i64 0, metadata !2311), !dbg !2312 ; [debug line = 12:50] [debug variable = read_mover_halt_complete]
  call void @llvm.dbg.value(metadata !{i1* %write_mover_halt}, i64 0, metadata !2313), !dbg !2314 ; [debug line = 12:91] [debug variable = write_mover_halt]
  call void @llvm.dbg.value(metadata !{i1* %write_mover_halt_complete}, i64 0, metadata !2315), !dbg !2316 ; [debug line = 12:124] [debug variable = write_mover_halt_complete]
  call void @llvm.dbg.value(metadata !{i128* %out_stream_V_V}, i64 0, metadata !2317), !dbg !2325 ; [debug line = 70:115@12:151] [debug variable = out_stream.V.V]
  call void @llvm.dbg.value(metadata !{i128* %in_stream_V_V}, i64 0, metadata !2328), !dbg !2334 ; [debug line = 52:114@12:0] [debug variable = in_stream.V.V]
  call void @llvm.dbg.value(metadata !{i72* %write_mover_V_V}, i64 0, metadata !2336), !dbg !2344 ; [debug line = 34:115@12:0] [debug variable = write_mover.V.V]
  call void @llvm.dbg.value(metadata !{i72* %read_mover_V_V}, i64 0, metadata !2345), !dbg !2351 ; [debug line = 16:114@12:0] [debug variable = read_mover.V.V]
  call void (...)* @_ssdm_op_SpecWire(i1* %write_mover_halt_complete, [8 x i8]* @p_str, i32 0, i32 0, i32 0, i32 0, [1 x i8]* @p_str1, [1 x i8]* @p_str1, [1 x i8]* @p_str1) nounwind, !dbg !2352 ; [debug line = 13:1]
  call void (...)* @_ssdm_op_SpecWire(i1* %write_mover_halt, [8 x i8]* @p_str, i32 0, i32 0, i32 0, i32 0, [1 x i8]* @p_str1, [1 x i8]* @p_str1, [1 x i8]* @p_str1) nounwind, !dbg !2353 ; [debug line = 15:1]
  call void (...)* @_ssdm_op_SpecWire(i1* %read_mover_halt_complete, [8 x i8]* @p_str, i32 0, i32 0, i32 0, i32 0, [1 x i8]* @p_str1, [1 x i8]* @p_str1, [1 x i8]* @p_str1) nounwind, !dbg !2354 ; [debug line = 17:1]
  call void (...)* @_ssdm_op_SpecWire(i1* %read_mover_halt, [8 x i8]* @p_str, i32 0, i32 0, i32 0, i32 0, [1 x i8]* @p_str1, [1 x i8]* @p_str1, [1 x i8]* @p_str1) nounwind, !dbg !2355 ; [debug line = 19:1]
  call void (...)* @_ssdm_op_SpecWire(i72* %write_mover_V_V, [5 x i8]* @p_str2, i32 0, i32 0, i32 0, i32 0, [1 x i8]* @p_str1, [1 x i8]* @p_str1, [1 x i8]* @p_str1) nounwind, !dbg !2356 ; [debug line = 21:1]
  call void (...)* @_ssdm_op_SpecWire(i72* %read_mover_V_V, [5 x i8]* @p_str2, i32 0, i32 0, i32 0, i32 0, [1 x i8]* @p_str1, [1 x i8]* @p_str1, [1 x i8]* @p_str1) nounwind, !dbg !2357 ; [debug line = 23:1]
  call void (...)* @_ssdm_op_SpecWire(i32 0, [10 x i8]* @p_str3, i32 0, i32 0, i32 0, i32 0, [1 x i8]* @p_str1, [1 x i8]* @p_str1, [1 x i8]* @p_str1) nounwind, !dbg !2358 ; [debug line = 25:1]
  call void (...)* @_ssdm_op_SpecWire(i32 %length, [10 x i8]* @p_str3, i32 0, i32 0, i32 0, i32 0, [1 x i8]* @p_str1, [1 x i8]* @p_str1, [1 x i8]* @p_str1) nounwind, !dbg !2359 ; [debug line = 27:1]
  call void (...)* @_ssdm_op_SpecWire(i32 %length, [7 x i8]* @p_str4, i32 0, i32 0, i32 0, i32 0, [1 x i8]* @p_str1, [1 x i8]* @p_str1, [1 x i8]* @p_str1) nounwind, !dbg !2360 ; [debug line = 29:1]
  call void (...)* @_ssdm_op_SpecWire(i32 %destinationAddress, [7 x i8]* @p_str4, i32 0, i32 0, i32 0, i32 0, [1 x i8]* @p_str1, [1 x i8]* @p_str1, [1 x i8]* @p_str1) nounwind, !dbg !2361 ; [debug line = 31:1]
  call void (...)* @_ssdm_op_SpecWire(i32 %sourceAddress, [7 x i8]* @p_str4, i32 0, i32 0, i32 0, i32 0, [1 x i8]* @p_str1, [1 x i8]* @p_str1, [1 x i8]* @p_str1) nounwind, !dbg !2362 ; [debug line = 33:1]
  call void (...)* @_ssdm_op_SpecWire(i128* %out_stream_V_V, [5 x i8]* @p_str2, i32 0, i32 0, i32 0, i32 0, [1 x i8]* @p_str1, [1 x i8]* @p_str1, [1 x i8]* @p_str1) nounwind, !dbg !2363 ; [debug line = 40:1]
  call void (...)* @_ssdm_op_SpecWire(i128* %in_stream_V_V, [5 x i8]* @p_str2, i32 0, i32 0, i32 0, i32 0, [1 x i8]* @p_str1, [1 x i8]* @p_str1, [1 x i8]* @p_str1) nounwind, !dbg !2364 ; [debug line = 42:1]
  call void (...)* @_ssdm_op_SpecWire(i32 %destinationAddress, [10 x i8]* @p_str3, i32 0, i32 0, i32 0, i32 0, [1 x i8]* @p_str1, [1 x i8]* @p_str1, [1 x i8]* @p_str1) nounwind, !dbg !2365 ; [debug line = 44:1]
  call void (...)* @_ssdm_op_SpecWire(i32 %sourceAddress, [10 x i8]* @p_str3, i32 0, i32 0, i32 0, i32 0, [1 x i8]* @p_str1, [1 x i8]* @p_str1, [1 x i8]* @p_str1) nounwind, !dbg !2366 ; [debug line = 46:1]
  call void @llvm.dbg.value(metadata !{i32* %sourceAddress_assign}, i64 0, metadata !2277), !dbg !2367 ; [debug line = 48:39] [debug variable = sourceAddress]
  call void @llvm.dbg.value(metadata !{i32* %sourceAddress_assign}, i64 0, metadata !2277), !dbg !2367 ; [debug line = 48:39] [debug variable = sourceAddress]
  call void @llvm.dbg.value(metadata !{i32* %sourceAddress_assign}, i64 0, metadata !2277), !dbg !2367 ; [debug line = 48:39] [debug variable = sourceAddress]
  call void @llvm.dbg.value(metadata !{i32* %sourceAddress_assign}, i64 0, metadata !2277), !dbg !2367 ; [debug line = 48:39] [debug variable = sourceAddress]
  call void @llvm.dbg.value(metadata !{i32* %sourceAddress_assign}, i64 0, metadata !2277), !dbg !2367 ; [debug line = 48:39] [debug variable = sourceAddress]
  call void @llvm.dbg.value(metadata !{i32* %sourceAddress_assign}, i64 0, metadata !2277), !dbg !2367 ; [debug line = 48:39] [debug variable = sourceAddress]
  call void @llvm.dbg.value(metadata !{i32* %sourceAddress_assign}, i64 0, metadata !2277), !dbg !2367 ; [debug line = 48:39] [debug variable = sourceAddress]
  call void @llvm.dbg.value(metadata !{i32* %sourceAddress_assign}, i64 0, metadata !2277), !dbg !2367 ; [debug line = 48:39] [debug variable = sourceAddress]
  call void @llvm.dbg.value(metadata !{i32* %sourceAddress_assign}, i64 0, metadata !2277), !dbg !2367 ; [debug line = 48:39] [debug variable = sourceAddress]
  call void @llvm.dbg.value(metadata !{i32* %sourceAddress_assign}, i64 0, metadata !2277), !dbg !2367 ; [debug line = 48:39] [debug variable = sourceAddress]
  call void @llvm.dbg.value(metadata !{i32* %sourceAddress_assign}, i64 0, metadata !2277), !dbg !2367 ; [debug line = 48:39] [debug variable = sourceAddress]
  call void @llvm.dbg.value(metadata !{i32* %sourceAddress_assign}, i64 0, metadata !2277), !dbg !2367 ; [debug line = 48:39] [debug variable = sourceAddress]
  %sourceOffset_0 = load volatile i32* %sourceAddress_assign, align 4, !dbg !2367 ; [#uses=0 type=i32] [debug line = 48:39]
  call void @llvm.dbg.value(metadata !{i32 %sourceOffset_0}, i64 0, metadata !2368), !dbg !2367 ; [debug line = 48:39] [debug variable = sourceOffset]
  call void @llvm.dbg.value(metadata !{i32* %destinationAddress_assign}, i64 0, metadata !2275), !dbg !2369 ; [debug line = 49:42] [debug variable = destinationAddress]
  call void @llvm.dbg.value(metadata !{i32* %destinationAddress_assign}, i64 0, metadata !2275), !dbg !2369 ; [debug line = 49:42] [debug variable = destinationAddress]
  call void @llvm.dbg.value(metadata !{i32* %destinationAddress_assign}, i64 0, metadata !2275), !dbg !2369 ; [debug line = 49:42] [debug variable = destinationAddress]
  call void @llvm.dbg.value(metadata !{i32* %destinationAddress_assign}, i64 0, metadata !2275), !dbg !2369 ; [debug line = 49:42] [debug variable = destinationAddress]
  call void @llvm.dbg.value(metadata !{i32* %destinationAddress_assign}, i64 0, metadata !2275), !dbg !2369 ; [debug line = 49:42] [debug variable = destinationAddress]
  call void @llvm.dbg.value(metadata !{i32* %destinationAddress_assign}, i64 0, metadata !2275), !dbg !2369 ; [debug line = 49:42] [debug variable = destinationAddress]
  call void @llvm.dbg.value(metadata !{i32* %destinationAddress_assign}, i64 0, metadata !2275), !dbg !2369 ; [debug line = 49:42] [debug variable = destinationAddress]
  call void @llvm.dbg.value(metadata !{i32* %destinationAddress_assign}, i64 0, metadata !2275), !dbg !2369 ; [debug line = 49:42] [debug variable = destinationAddress]
  call void @llvm.dbg.value(metadata !{i32* %destinationAddress_assign}, i64 0, metadata !2275), !dbg !2369 ; [debug line = 49:42] [debug variable = destinationAddress]
  call void @llvm.dbg.value(metadata !{i32* %destinationAddress_assign}, i64 0, metadata !2275), !dbg !2369 ; [debug line = 49:42] [debug variable = destinationAddress]
  call void @llvm.dbg.value(metadata !{i32* %destinationAddress_assign}, i64 0, metadata !2275), !dbg !2369 ; [debug line = 49:42] [debug variable = destinationAddress]
  call void @llvm.dbg.value(metadata !{i32* %destinationAddress_assign}, i64 0, metadata !2275), !dbg !2369 ; [debug line = 49:42] [debug variable = destinationAddress]
  %destOffset_0 = load volatile i32* %destinationAddress_assign, align 4, !dbg !2369 ; [#uses=0 type=i32] [debug line = 49:42]
  call void @llvm.dbg.value(metadata !{i32 %destOffset_0}, i64 0, metadata !2370), !dbg !2369 ; [debug line = 49:42] [debug variable = destOffset]
  call void @llvm.dbg.value(metadata !{i32* %length_assign}, i64 0, metadata !59), !dbg !2371 ; [debug line = 51:29] [debug variable = length]
  call void @llvm.dbg.value(metadata !{i32* %length_assign}, i64 0, metadata !59), !dbg !2371 ; [debug line = 51:29] [debug variable = length]
  call void @llvm.dbg.value(metadata !{i32* %length_assign}, i64 0, metadata !59), !dbg !2371 ; [debug line = 51:29] [debug variable = length]
  call void @llvm.dbg.value(metadata !{i32* %length_assign}, i64 0, metadata !59), !dbg !2371 ; [debug line = 51:29] [debug variable = length]
  call void @llvm.dbg.value(metadata !{i32* %length_assign}, i64 0, metadata !59), !dbg !2371 ; [debug line = 51:29] [debug variable = length]
  call void @llvm.dbg.value(metadata !{i32* %length_assign}, i64 0, metadata !59), !dbg !2371 ; [debug line = 51:29] [debug variable = length]
  call void @llvm.dbg.value(metadata !{i32* %length_assign}, i64 0, metadata !59), !dbg !2371 ; [debug line = 51:29] [debug variable = length]
  call void @llvm.dbg.value(metadata !{i32* %length_assign}, i64 0, metadata !59), !dbg !2371 ; [debug line = 51:29] [debug variable = length]
  call void @llvm.dbg.value(metadata !{i32* %length_assign}, i64 0, metadata !59), !dbg !2371 ; [debug line = 51:29] [debug variable = length]
  call void @llvm.dbg.value(metadata !{i32* %length_assign}, i64 0, metadata !59), !dbg !2371 ; [debug line = 51:29] [debug variable = length]
  call void @llvm.dbg.value(metadata !{i32* %length_assign}, i64 0, metadata !59), !dbg !2371 ; [debug line = 51:29] [debug variable = length]
  call void @llvm.dbg.value(metadata !{i32* %length_assign}, i64 0, metadata !59), !dbg !2371 ; [debug line = 51:29] [debug variable = length]
  %length_assign_load = load volatile i32* %length_assign, align 4, !dbg !2371 ; [#uses=2 type=i32] [debug line = 51:29]
  %tmp = trunc i32 %length_assign_load to i28     ; [#uses=2 type=i28]
  %read_length = shl i32 %length_assign_load, 4, !dbg !2371 ; [#uses=1 type=i32] [debug line = 51:29]
  call void @llvm.dbg.value(metadata !{i32 %read_length}, i64 0, metadata !2372), !dbg !2371 ; [debug line = 51:29] [debug variable = read_length]
  call void @_ssdm_op_Write.ap_none.volatile.i1P(i1* %read_mover_halt, i1 true), !dbg !2373 ; [debug line = 53:2]
  br label %1, !dbg !2374                         ; [debug line = 54:2]

; <label>:1                                       ; preds = %2, %0
  %read_mover_halt_complete_read = call i1 @_ssdm_op_Read.ap_none.volatile.i1P(i1* %read_mover_halt_complete), !dbg !2374 ; [#uses=1 type=i1] [debug line = 54:2]
  br i1 %read_mover_halt_complete_read, label %3, label %2, !dbg !2374 ; [debug line = 54:2]

; <label>:2                                       ; preds = %1
  call void @_ssdm_op_Write.ap_none.volatile.i1P(i1* %read_mover_halt, i1 false), !dbg !2375 ; [debug line = 55:3]
  br label %1, !dbg !2377                         ; [debug line = 56:2]

; <label>:3                                       ; preds = %1
  call void @_ssdm_op_Write.ap_none.volatile.i1P(i1* %write_mover_halt, i1 true), !dbg !2378 ; [debug line = 58:2]
  br label %4, !dbg !2379                         ; [debug line = 59:2]

; <label>:4                                       ; preds = %5, %3
  %write_mover_halt_complete_read = call i1 @_ssdm_op_Read.ap_none.volatile.i1P(i1* %write_mover_halt_complete), !dbg !2379 ; [#uses=1 type=i1] [debug line = 59:2]
  br i1 %write_mover_halt_complete_read, label %6, label %5, !dbg !2379 ; [debug line = 59:2]

; <label>:5                                       ; preds = %4
  call void @_ssdm_op_Write.ap_none.volatile.i1P(i1* %write_mover_halt, i1 false), !dbg !2380 ; [debug line = 60:3]
  br label %4, !dbg !2382                         ; [debug line = 61:2]

; <label>:6                                       ; preds = %4
  call void @llvm.dbg.value(metadata !{i32* %sourceAddress_assign}, i64 0, metadata !2277), !dbg !2383 ; [debug line = 81:46] [debug variable = sourceAddress]
  call void @llvm.dbg.value(metadata !{i32* %sourceAddress_assign}, i64 0, metadata !2277), !dbg !2383 ; [debug line = 81:46] [debug variable = sourceAddress]
  call void @llvm.dbg.value(metadata !{i32* %sourceAddress_assign}, i64 0, metadata !2277), !dbg !2383 ; [debug line = 81:46] [debug variable = sourceAddress]
  call void @llvm.dbg.value(metadata !{i32* %sourceAddress_assign}, i64 0, metadata !2277), !dbg !2383 ; [debug line = 81:46] [debug variable = sourceAddress]
  call void @llvm.dbg.value(metadata !{i32* %sourceAddress_assign}, i64 0, metadata !2277), !dbg !2383 ; [debug line = 81:46] [debug variable = sourceAddress]
  call void @llvm.dbg.value(metadata !{i32* %sourceAddress_assign}, i64 0, metadata !2277), !dbg !2383 ; [debug line = 81:46] [debug variable = sourceAddress]
  call void @llvm.dbg.value(metadata !{i32* %sourceAddress_assign}, i64 0, metadata !2277), !dbg !2383 ; [debug line = 81:46] [debug variable = sourceAddress]
  call void @llvm.dbg.value(metadata !{i32* %sourceAddress_assign}, i64 0, metadata !2277), !dbg !2383 ; [debug line = 81:46] [debug variable = sourceAddress]
  call void @llvm.dbg.value(metadata !{i32* %sourceAddress_assign}, i64 0, metadata !2277), !dbg !2383 ; [debug line = 81:46] [debug variable = sourceAddress]
  call void @llvm.dbg.value(metadata !{i32* %sourceAddress_assign}, i64 0, metadata !2277), !dbg !2383 ; [debug line = 81:46] [debug variable = sourceAddress]
  call void @llvm.dbg.value(metadata !{i32* %sourceAddress_assign}, i64 0, metadata !2277), !dbg !2383 ; [debug line = 81:46] [debug variable = sourceAddress]
  call void @llvm.dbg.value(metadata !{i32* %sourceAddress_assign}, i64 0, metadata !2277), !dbg !2383 ; [debug line = 81:46] [debug variable = sourceAddress]
  %p_Repl2_1 = load volatile i32* %sourceAddress_assign, align 4, !dbg !2383 ; [#uses=1 type=i32] [debug line = 81:46]
  call void @llvm.dbg.value(metadata !{i32 %p_Repl2_1}, i64 0, metadata !2384), !dbg !2451 ; [debug line = 205:64@81:46] [debug variable = val]
  call void @llvm.dbg.value(metadata !{i32 %p_Repl2_1}, i64 0, metadata !2452), !dbg !2454 ; [debug line = 205:64@205:86@81:46] [debug variable = val]
  call void @llvm.dbg.value(metadata !{i32 %p_Repl2_1}, i64 0, metadata !2456), !dbg !2464 ; [debug line = 205:71@205:86@81:46] [debug variable = read_mover_source.V]
  call void @llvm.dbg.value(metadata !{i32 %read_length}, i64 0, metadata !2466), !dbg !2468 ; [debug line = 204:55@82:44] [debug variable = val]
  call void @llvm.dbg.value(metadata !{i32 %read_length}, i64 0, metadata !2470), !dbg !2472 ; [debug line = 204:55@204:77@82:44] [debug variable = val]
  call void @llvm.dbg.value(metadata !{i32 %read_length}, i64 0, metadata !2474), !dbg !2476 ; [debug line = 204:62@204:77@82:44] [debug variable = read_mover_length.V]
  call void @llvm.dbg.value(metadata !{i32 %read_length}, i64 0, metadata !2478), !dbg !2482 ; [debug line = 839:185@1393:91@1395:5@839:185@2323:91@157:119@157:120@84:50] [debug variable = __Repl2__]
  call void @llvm.dbg.value(metadata !{i32 %p_Repl2_1}, i64 0, metadata !2504), !dbg !2506 ; [debug line = 841:185@1393:91@1395:5@839:185@2323:91@157:119@157:120@84:50] [debug variable = __Repl2__]
  %p_Result_s = call i72 @_ssdm_op_BitConcatenate.i72.i8.i32.i28.i4(i8 0, i32 %p_Repl2_1, i28 %tmp, i4 0), !dbg !2507 ; [#uses=1 type=i72] [debug line = 841:187@2323:91@157:119@157:120@84:50]
  call void @llvm.dbg.value(metadata !{i72 %p_Result_s}, i64 0, metadata !2509), !dbg !2507 ; [debug line = 841:187@2323:91@157:119@157:120@84:50] [debug variable = __Result__]
  call void @llvm.dbg.value(metadata !{i72 %p_Result_s}, i64 0, metadata !2510), !dbg !2512 ; [debug line = 841:0@2323:91@157:119@157:120@84:50] [debug variable = tmpVal.V]
  call void @llvm.dbg.value(metadata !{i72 %p_Result_s}, i64 0, metadata !2513), !dbg !2515 ; [debug line = 2324:9@157:119@157:120@84:50] [debug variable = read_mover_data.V]
  call void @llvm.dbg.value(metadata !{i72* %read_mover_V_V}, i64 0, metadata !2516), !dbg !2521 ; [debug line = 98:48@85:2] [debug variable = stream<ap_uint<72> >.V.V]
  call void @llvm.dbg.value(metadata !{i72 %p_Result_s}, i64 0, metadata !2523), !dbg !2526 ; [debug line = 99:31@85:2] [debug variable = tmp.V]
  call void @llvm.dbg.value(metadata !{i72 %p_Result_s}, i64 0, metadata !2523), !dbg !2526 ; [debug line = 99:31@85:2] [debug variable = tmp.V]
  call void @llvm.dbg.value(metadata !{i72 %p_Result_s}, i64 0, metadata !2523), !dbg !2526 ; [debug line = 99:31@85:2] [debug variable = tmp.V]
  call void @llvm.dbg.value(metadata !{i72 %p_Result_s}, i64 0, metadata !2523), !dbg !2526 ; [debug line = 99:31@85:2] [debug variable = tmp.V]
  call void @llvm.dbg.value(metadata !{i72 %p_Result_s}, i64 0, metadata !2523), !dbg !2526 ; [debug line = 99:31@85:2] [debug variable = tmp.V]
  call void @llvm.dbg.value(metadata !{i72 %p_Result_s}, i64 0, metadata !2523), !dbg !2526 ; [debug line = 99:31@85:2] [debug variable = tmp.V]
  call void @llvm.dbg.value(metadata !{i72 %p_Result_s}, i64 0, metadata !2523), !dbg !2526 ; [debug line = 99:31@85:2] [debug variable = tmp.V]
  call void @llvm.dbg.value(metadata !{i72 %p_Result_s}, i64 0, metadata !2523), !dbg !2526 ; [debug line = 99:31@85:2] [debug variable = tmp.V]
  call void @llvm.dbg.value(metadata !{i72 %p_Result_s}, i64 0, metadata !2523), !dbg !2526 ; [debug line = 99:31@85:2] [debug variable = tmp.V]
  call void @llvm.dbg.value(metadata !{i72 %p_Result_s}, i64 0, metadata !2523), !dbg !2526 ; [debug line = 99:31@85:2] [debug variable = tmp.V]
  call void @llvm.dbg.value(metadata !{i72 %p_Result_s}, i64 0, metadata !2523), !dbg !2526 ; [debug line = 99:31@85:2] [debug variable = tmp.V]
  call void @llvm.dbg.value(metadata !{i72 %p_Result_s}, i64 0, metadata !2523), !dbg !2526 ; [debug line = 99:31@85:2] [debug variable = tmp.V]
  call void @llvm.dbg.value(metadata !{i72 %p_Result_s}, i64 0, metadata !2523), !dbg !2526 ; [debug line = 99:31@85:2] [debug variable = tmp.V]
  call void @llvm.dbg.value(metadata !{i72 %p_Result_s}, i64 0, metadata !2523), !dbg !2526 ; [debug line = 99:31@85:2] [debug variable = tmp.V]
  call void @llvm.dbg.value(metadata !{i72 %p_Result_s}, i64 0, metadata !2523), !dbg !2526 ; [debug line = 99:31@85:2] [debug variable = tmp.V]
  call void @llvm.dbg.value(metadata !{i72 %p_Result_s}, i64 0, metadata !2523), !dbg !2526 ; [debug line = 99:31@85:2] [debug variable = tmp.V]
  call void @llvm.dbg.value(metadata !{i72 %p_Result_s}, i64 0, metadata !2523), !dbg !2526 ; [debug line = 99:31@85:2] [debug variable = tmp.V]
  call void @llvm.dbg.value(metadata !{i72 %p_Result_s}, i64 0, metadata !2523), !dbg !2526 ; [debug line = 99:31@85:2] [debug variable = tmp.V]
  call void @llvm.dbg.value(metadata !{i72 %p_Result_s}, i64 0, metadata !2523), !dbg !2526 ; [debug line = 99:31@85:2] [debug variable = tmp.V]
  call void @llvm.dbg.value(metadata !{i72 %p_Result_s}, i64 0, metadata !2523), !dbg !2526 ; [debug line = 99:31@85:2] [debug variable = tmp.V]
  call void @llvm.dbg.value(metadata !{i72 %p_Result_s}, i64 0, metadata !2523), !dbg !2526 ; [debug line = 99:31@85:2] [debug variable = tmp.V]
  call void @llvm.dbg.value(metadata !{i72 %p_Result_s}, i64 0, metadata !2523), !dbg !2526 ; [debug line = 99:31@85:2] [debug variable = tmp.V]
  call void @llvm.dbg.value(metadata !{i72 %p_Result_s}, i64 0, metadata !2523), !dbg !2526 ; [debug line = 99:31@85:2] [debug variable = tmp.V]
  call void @llvm.dbg.value(metadata !{i72 %p_Result_s}, i64 0, metadata !2523), !dbg !2526 ; [debug line = 99:31@85:2] [debug variable = tmp.V]
  call void @llvm.dbg.value(metadata !{i72 %p_Result_s}, i64 0, metadata !2523), !dbg !2526 ; [debug line = 99:31@85:2] [debug variable = tmp.V]
  call void @llvm.dbg.value(metadata !{i72 %p_Result_s}, i64 0, metadata !2523), !dbg !2526 ; [debug line = 99:31@85:2] [debug variable = tmp.V]
  call void @llvm.dbg.value(metadata !{i72 %p_Result_s}, i64 0, metadata !2523), !dbg !2526 ; [debug line = 99:31@85:2] [debug variable = tmp.V]
  call void @llvm.dbg.value(metadata !{i72 %p_Result_s}, i64 0, metadata !2523), !dbg !2526 ; [debug line = 99:31@85:2] [debug variable = tmp.V]
  call void @llvm.dbg.value(metadata !{i72 %p_Result_s}, i64 0, metadata !2523), !dbg !2526 ; [debug line = 99:31@85:2] [debug variable = tmp.V]
  call void @llvm.dbg.value(metadata !{i72 %p_Result_s}, i64 0, metadata !2523), !dbg !2526 ; [debug line = 99:31@85:2] [debug variable = tmp.V]
  call void @llvm.dbg.value(metadata !{i72 %p_Result_s}, i64 0, metadata !2523), !dbg !2526 ; [debug line = 99:31@85:2] [debug variable = tmp.V]
  call void @llvm.dbg.value(metadata !{i72 %p_Result_s}, i64 0, metadata !2523), !dbg !2526 ; [debug line = 99:31@85:2] [debug variable = tmp.V]
  call void @llvm.dbg.value(metadata !{i72 %p_Result_s}, i64 0, metadata !2523), !dbg !2526 ; [debug line = 99:31@85:2] [debug variable = tmp.V]
  call void @_ssdm_op_Write.axis.volatile.i72P(i72* %read_mover_V_V, i72 %p_Result_s), !dbg !2527 ; [debug line = 100:9@85:2]
  call void @llvm.dbg.value(metadata !{i32* %destinationAddress_assign}, i64 0, metadata !2275), !dbg !2528 ; [debug line = 99:52] [debug variable = destinationAddress]
  call void @llvm.dbg.value(metadata !{i32* %destinationAddress_assign}, i64 0, metadata !2275), !dbg !2528 ; [debug line = 99:52] [debug variable = destinationAddress]
  call void @llvm.dbg.value(metadata !{i32* %destinationAddress_assign}, i64 0, metadata !2275), !dbg !2528 ; [debug line = 99:52] [debug variable = destinationAddress]
  call void @llvm.dbg.value(metadata !{i32* %destinationAddress_assign}, i64 0, metadata !2275), !dbg !2528 ; [debug line = 99:52] [debug variable = destinationAddress]
  call void @llvm.dbg.value(metadata !{i32* %destinationAddress_assign}, i64 0, metadata !2275), !dbg !2528 ; [debug line = 99:52] [debug variable = destinationAddress]
  call void @llvm.dbg.value(metadata !{i32* %destinationAddress_assign}, i64 0, metadata !2275), !dbg !2528 ; [debug line = 99:52] [debug variable = destinationAddress]
  call void @llvm.dbg.value(metadata !{i32* %destinationAddress_assign}, i64 0, metadata !2275), !dbg !2528 ; [debug line = 99:52] [debug variable = destinationAddress]
  call void @llvm.dbg.value(metadata !{i32* %destinationAddress_assign}, i64 0, metadata !2275), !dbg !2528 ; [debug line = 99:52] [debug variable = destinationAddress]
  call void @llvm.dbg.value(metadata !{i32* %destinationAddress_assign}, i64 0, metadata !2275), !dbg !2528 ; [debug line = 99:52] [debug variable = destinationAddress]
  call void @llvm.dbg.value(metadata !{i32* %destinationAddress_assign}, i64 0, metadata !2275), !dbg !2528 ; [debug line = 99:52] [debug variable = destinationAddress]
  call void @llvm.dbg.value(metadata !{i32* %destinationAddress_assign}, i64 0, metadata !2275), !dbg !2528 ; [debug line = 99:52] [debug variable = destinationAddress]
  call void @llvm.dbg.value(metadata !{i32* %destinationAddress_assign}, i64 0, metadata !2275), !dbg !2528 ; [debug line = 99:52] [debug variable = destinationAddress]
  %p_Repl2_2 = load volatile i32* %destinationAddress_assign, align 4, !dbg !2528 ; [#uses=1 type=i32] [debug line = 99:52]
  call void @llvm.dbg.value(metadata !{i32 %p_Repl2_2}, i64 0, metadata !2384), !dbg !2529 ; [debug line = 205:64@99:52] [debug variable = val]
  call void @llvm.dbg.value(metadata !{i32 %p_Repl2_2}, i64 0, metadata !2452), !dbg !2530 ; [debug line = 205:64@205:86@99:52] [debug variable = val]
  call void @llvm.dbg.value(metadata !{i32 %p_Repl2_2}, i64 0, metadata !2532), !dbg !2534 ; [debug line = 205:71@205:86@99:52] [debug variable = write_mover_source.V]
  call void @llvm.dbg.value(metadata !{i32 %read_length}, i64 0, metadata !2466), !dbg !2535 ; [debug line = 204:55@100:45] [debug variable = val]
  call void @llvm.dbg.value(metadata !{i32 %read_length}, i64 0, metadata !2470), !dbg !2537 ; [debug line = 204:55@204:77@100:45] [debug variable = val]
  call void @llvm.dbg.value(metadata !{i32 %read_length}, i64 0, metadata !2539), !dbg !2541 ; [debug line = 204:62@204:77@100:45] [debug variable = write_mover_length.V]
  call void @llvm.dbg.value(metadata !{i32 %read_length}, i64 0, metadata !2478), !dbg !2542 ; [debug line = 839:185@1393:91@1395:5@839:185@2323:91@157:119@157:120@102:52] [debug variable = __Repl2__]
  call void @llvm.dbg.value(metadata !{i32 %p_Repl2_2}, i64 0, metadata !2504), !dbg !2550 ; [debug line = 841:185@1393:91@1395:5@839:185@2323:91@157:119@157:120@102:52] [debug variable = __Repl2__]
  %p_Result_1 = call i72 @_ssdm_op_BitConcatenate.i72.i8.i32.i28.i4(i8 0, i32 %p_Repl2_2, i28 %tmp, i4 0), !dbg !2551 ; [#uses=1 type=i72] [debug line = 841:187@2323:91@157:119@157:120@102:52]
  call void @llvm.dbg.value(metadata !{i72 %p_Result_1}, i64 0, metadata !2509), !dbg !2551 ; [debug line = 841:187@2323:91@157:119@157:120@102:52] [debug variable = __Result__]
  call void @llvm.dbg.value(metadata !{i72 %p_Result_1}, i64 0, metadata !2510), !dbg !2552 ; [debug line = 841:0@2323:91@157:119@157:120@102:52] [debug variable = tmpVal.V]
  call void @llvm.dbg.value(metadata !{i72 %p_Result_1}, i64 0, metadata !2553), !dbg !2555 ; [debug line = 2324:9@157:119@157:120@102:52] [debug variable = write_mover_data.V]
  call void @llvm.dbg.value(metadata !{i72* %write_mover_V_V}, i64 0, metadata !2516), !dbg !2556 ; [debug line = 98:48@103:2] [debug variable = stream<ap_uint<72> >.V.V]
  call void @llvm.dbg.value(metadata !{i72 %p_Result_1}, i64 0, metadata !2523), !dbg !2558 ; [debug line = 99:31@103:2] [debug variable = tmp.V]
  call void @llvm.dbg.value(metadata !{i72 %p_Result_1}, i64 0, metadata !2523), !dbg !2558 ; [debug line = 99:31@103:2] [debug variable = tmp.V]
  call void @llvm.dbg.value(metadata !{i72 %p_Result_1}, i64 0, metadata !2523), !dbg !2558 ; [debug line = 99:31@103:2] [debug variable = tmp.V]
  call void @llvm.dbg.value(metadata !{i72 %p_Result_1}, i64 0, metadata !2523), !dbg !2558 ; [debug line = 99:31@103:2] [debug variable = tmp.V]
  call void @llvm.dbg.value(metadata !{i72 %p_Result_1}, i64 0, metadata !2523), !dbg !2558 ; [debug line = 99:31@103:2] [debug variable = tmp.V]
  call void @llvm.dbg.value(metadata !{i72 %p_Result_1}, i64 0, metadata !2523), !dbg !2558 ; [debug line = 99:31@103:2] [debug variable = tmp.V]
  call void @llvm.dbg.value(metadata !{i72 %p_Result_1}, i64 0, metadata !2523), !dbg !2558 ; [debug line = 99:31@103:2] [debug variable = tmp.V]
  call void @llvm.dbg.value(metadata !{i72 %p_Result_1}, i64 0, metadata !2523), !dbg !2558 ; [debug line = 99:31@103:2] [debug variable = tmp.V]
  call void @llvm.dbg.value(metadata !{i72 %p_Result_1}, i64 0, metadata !2523), !dbg !2558 ; [debug line = 99:31@103:2] [debug variable = tmp.V]
  call void @llvm.dbg.value(metadata !{i72 %p_Result_1}, i64 0, metadata !2523), !dbg !2558 ; [debug line = 99:31@103:2] [debug variable = tmp.V]
  call void @llvm.dbg.value(metadata !{i72 %p_Result_1}, i64 0, metadata !2523), !dbg !2558 ; [debug line = 99:31@103:2] [debug variable = tmp.V]
  call void @llvm.dbg.value(metadata !{i72 %p_Result_1}, i64 0, metadata !2523), !dbg !2558 ; [debug line = 99:31@103:2] [debug variable = tmp.V]
  call void @llvm.dbg.value(metadata !{i72 %p_Result_1}, i64 0, metadata !2523), !dbg !2558 ; [debug line = 99:31@103:2] [debug variable = tmp.V]
  call void @llvm.dbg.value(metadata !{i72 %p_Result_1}, i64 0, metadata !2523), !dbg !2558 ; [debug line = 99:31@103:2] [debug variable = tmp.V]
  call void @llvm.dbg.value(metadata !{i72 %p_Result_1}, i64 0, metadata !2523), !dbg !2558 ; [debug line = 99:31@103:2] [debug variable = tmp.V]
  call void @llvm.dbg.value(metadata !{i72 %p_Result_1}, i64 0, metadata !2523), !dbg !2558 ; [debug line = 99:31@103:2] [debug variable = tmp.V]
  call void @llvm.dbg.value(metadata !{i72 %p_Result_1}, i64 0, metadata !2523), !dbg !2558 ; [debug line = 99:31@103:2] [debug variable = tmp.V]
  call void @llvm.dbg.value(metadata !{i72 %p_Result_1}, i64 0, metadata !2523), !dbg !2558 ; [debug line = 99:31@103:2] [debug variable = tmp.V]
  call void @llvm.dbg.value(metadata !{i72 %p_Result_1}, i64 0, metadata !2523), !dbg !2558 ; [debug line = 99:31@103:2] [debug variable = tmp.V]
  call void @llvm.dbg.value(metadata !{i72 %p_Result_1}, i64 0, metadata !2523), !dbg !2558 ; [debug line = 99:31@103:2] [debug variable = tmp.V]
  call void @llvm.dbg.value(metadata !{i72 %p_Result_1}, i64 0, metadata !2523), !dbg !2558 ; [debug line = 99:31@103:2] [debug variable = tmp.V]
  call void @llvm.dbg.value(metadata !{i72 %p_Result_1}, i64 0, metadata !2523), !dbg !2558 ; [debug line = 99:31@103:2] [debug variable = tmp.V]
  call void @llvm.dbg.value(metadata !{i72 %p_Result_1}, i64 0, metadata !2523), !dbg !2558 ; [debug line = 99:31@103:2] [debug variable = tmp.V]
  call void @llvm.dbg.value(metadata !{i72 %p_Result_1}, i64 0, metadata !2523), !dbg !2558 ; [debug line = 99:31@103:2] [debug variable = tmp.V]
  call void @llvm.dbg.value(metadata !{i72 %p_Result_1}, i64 0, metadata !2523), !dbg !2558 ; [debug line = 99:31@103:2] [debug variable = tmp.V]
  call void @llvm.dbg.value(metadata !{i72 %p_Result_1}, i64 0, metadata !2523), !dbg !2558 ; [debug line = 99:31@103:2] [debug variable = tmp.V]
  call void @llvm.dbg.value(metadata !{i72 %p_Result_1}, i64 0, metadata !2523), !dbg !2558 ; [debug line = 99:31@103:2] [debug variable = tmp.V]
  call void @llvm.dbg.value(metadata !{i72 %p_Result_1}, i64 0, metadata !2523), !dbg !2558 ; [debug line = 99:31@103:2] [debug variable = tmp.V]
  call void @llvm.dbg.value(metadata !{i72 %p_Result_1}, i64 0, metadata !2523), !dbg !2558 ; [debug line = 99:31@103:2] [debug variable = tmp.V]
  call void @llvm.dbg.value(metadata !{i72 %p_Result_1}, i64 0, metadata !2523), !dbg !2558 ; [debug line = 99:31@103:2] [debug variable = tmp.V]
  call void @llvm.dbg.value(metadata !{i72 %p_Result_1}, i64 0, metadata !2523), !dbg !2558 ; [debug line = 99:31@103:2] [debug variable = tmp.V]
  call void @llvm.dbg.value(metadata !{i72 %p_Result_1}, i64 0, metadata !2523), !dbg !2558 ; [debug line = 99:31@103:2] [debug variable = tmp.V]
  call void @llvm.dbg.value(metadata !{i72 %p_Result_1}, i64 0, metadata !2523), !dbg !2558 ; [debug line = 99:31@103:2] [debug variable = tmp.V]
  call void @_ssdm_op_Write.axis.volatile.i72P(i72* %write_mover_V_V, i72 %p_Result_1), !dbg !2559 ; [debug line = 100:9@103:2]
  br label %7, !dbg !2560                         ; [debug line = 118:6]

; <label>:7                                       ; preds = %8, %6
  %i = phi i32 [ 0, %6 ], [ %i_1, %8 ]            ; [#uses=2 type=i32]
  call void @llvm.dbg.value(metadata !{i32* %length_assign}, i64 0, metadata !59), !dbg !2560 ; [debug line = 118:6] [debug variable = length]
  call void @llvm.dbg.value(metadata !{i32* %length_assign}, i64 0, metadata !59), !dbg !2560 ; [debug line = 118:6] [debug variable = length]
  call void @llvm.dbg.value(metadata !{i32* %length_assign}, i64 0, metadata !59), !dbg !2560 ; [debug line = 118:6] [debug variable = length]
  call void @llvm.dbg.value(metadata !{i32* %length_assign}, i64 0, metadata !59), !dbg !2560 ; [debug line = 118:6] [debug variable = length]
  call void @llvm.dbg.value(metadata !{i32* %length_assign}, i64 0, metadata !59), !dbg !2560 ; [debug line = 118:6] [debug variable = length]
  call void @llvm.dbg.value(metadata !{i32* %length_assign}, i64 0, metadata !59), !dbg !2560 ; [debug line = 118:6] [debug variable = length]
  call void @llvm.dbg.value(metadata !{i32* %length_assign}, i64 0, metadata !59), !dbg !2560 ; [debug line = 118:6] [debug variable = length]
  call void @llvm.dbg.value(metadata !{i32* %length_assign}, i64 0, metadata !59), !dbg !2560 ; [debug line = 118:6] [debug variable = length]
  call void @llvm.dbg.value(metadata !{i32* %length_assign}, i64 0, metadata !59), !dbg !2560 ; [debug line = 118:6] [debug variable = length]
  call void @llvm.dbg.value(metadata !{i32* %length_assign}, i64 0, metadata !59), !dbg !2560 ; [debug line = 118:6] [debug variable = length]
  call void @llvm.dbg.value(metadata !{i32* %length_assign}, i64 0, metadata !59), !dbg !2560 ; [debug line = 118:6] [debug variable = length]
  call void @llvm.dbg.value(metadata !{i32* %length_assign}, i64 0, metadata !59), !dbg !2560 ; [debug line = 118:6] [debug variable = length]
  %length_assign_load_1 = load volatile i32* %length_assign, align 4, !dbg !2560 ; [#uses=1 type=i32] [debug line = 118:6]
  %tmp_2 = icmp slt i32 %i, %length_assign_load_1, !dbg !2560 ; [#uses=1 type=i1] [debug line = 118:6]
  %i_1 = add nsw i32 %i, 1, !dbg !2562            ; [#uses=1 type=i32] [debug line = 118:21]
  br i1 %tmp_2, label %8, label %9, !dbg !2560    ; [debug line = 118:6]

; <label>:8                                       ; preds = %7
  call void @llvm.dbg.value(metadata !{i128* %in_stream_V_V}, i64 0, metadata !2563), !dbg !2568 ; [debug line = 83:56@121:20] [debug variable = stream<ap_uint<128> >.V.V]
  %tmp_V_2 = call i128 @_ssdm_op_Read.axis.volatile.i128P(i128* %in_stream_V_V), !dbg !2571 ; [#uses=1 type=i128] [debug line = 85:9@121:20]
  call void @llvm.dbg.value(metadata !{i128 %tmp_V_2}, i64 0, metadata !2573), !dbg !2571 ; [debug line = 85:9@121:20] [debug variable = tmp.V]
  call void @llvm.dbg.value(metadata !{i128* %out_stream_V_V}, i64 0, metadata !2575), !dbg !2578 ; [debug line = 98:48@121:20] [debug variable = stream<ap_uint<128> >.V.V]
  call void @llvm.dbg.value(metadata !{i128 %tmp_V_2}, i64 0, metadata !2579), !dbg !2582 ; [debug line = 99:31@121:20] [debug variable = tmp.V]
  call void @llvm.dbg.value(metadata !{i128 %tmp_V_2}, i64 0, metadata !2579), !dbg !2582 ; [debug line = 99:31@121:20] [debug variable = tmp.V]
  call void @llvm.dbg.value(metadata !{i128 %tmp_V_2}, i64 0, metadata !2579), !dbg !2582 ; [debug line = 99:31@121:20] [debug variable = tmp.V]
  call void @llvm.dbg.value(metadata !{i128 %tmp_V_2}, i64 0, metadata !2579), !dbg !2582 ; [debug line = 99:31@121:20] [debug variable = tmp.V]
  call void @llvm.dbg.value(metadata !{i128 %tmp_V_2}, i64 0, metadata !2579), !dbg !2582 ; [debug line = 99:31@121:20] [debug variable = tmp.V]
  call void @llvm.dbg.value(metadata !{i128 %tmp_V_2}, i64 0, metadata !2579), !dbg !2582 ; [debug line = 99:31@121:20] [debug variable = tmp.V]
  call void @llvm.dbg.value(metadata !{i128 %tmp_V_2}, i64 0, metadata !2579), !dbg !2582 ; [debug line = 99:31@121:20] [debug variable = tmp.V]
  call void @llvm.dbg.value(metadata !{i128 %tmp_V_2}, i64 0, metadata !2579), !dbg !2582 ; [debug line = 99:31@121:20] [debug variable = tmp.V]
  call void @llvm.dbg.value(metadata !{i128 %tmp_V_2}, i64 0, metadata !2579), !dbg !2582 ; [debug line = 99:31@121:20] [debug variable = tmp.V]
  call void @llvm.dbg.value(metadata !{i128 %tmp_V_2}, i64 0, metadata !2579), !dbg !2582 ; [debug line = 99:31@121:20] [debug variable = tmp.V]
  call void @llvm.dbg.value(metadata !{i128 %tmp_V_2}, i64 0, metadata !2579), !dbg !2582 ; [debug line = 99:31@121:20] [debug variable = tmp.V]
  call void @llvm.dbg.value(metadata !{i128 %tmp_V_2}, i64 0, metadata !2579), !dbg !2582 ; [debug line = 99:31@121:20] [debug variable = tmp.V]
  call void @llvm.dbg.value(metadata !{i128 %tmp_V_2}, i64 0, metadata !2579), !dbg !2582 ; [debug line = 99:31@121:20] [debug variable = tmp.V]
  call void @llvm.dbg.value(metadata !{i128 %tmp_V_2}, i64 0, metadata !2579), !dbg !2582 ; [debug line = 99:31@121:20] [debug variable = tmp.V]
  call void @llvm.dbg.value(metadata !{i128 %tmp_V_2}, i64 0, metadata !2579), !dbg !2582 ; [debug line = 99:31@121:20] [debug variable = tmp.V]
  call void @llvm.dbg.value(metadata !{i128 %tmp_V_2}, i64 0, metadata !2579), !dbg !2582 ; [debug line = 99:31@121:20] [debug variable = tmp.V]
  call void @llvm.dbg.value(metadata !{i128 %tmp_V_2}, i64 0, metadata !2579), !dbg !2582 ; [debug line = 99:31@121:20] [debug variable = tmp.V]
  call void @llvm.dbg.value(metadata !{i128 %tmp_V_2}, i64 0, metadata !2579), !dbg !2582 ; [debug line = 99:31@121:20] [debug variable = tmp.V]
  call void @llvm.dbg.value(metadata !{i128 %tmp_V_2}, i64 0, metadata !2579), !dbg !2582 ; [debug line = 99:31@121:20] [debug variable = tmp.V]
  call void @llvm.dbg.value(metadata !{i128 %tmp_V_2}, i64 0, metadata !2579), !dbg !2582 ; [debug line = 99:31@121:20] [debug variable = tmp.V]
  call void @llvm.dbg.value(metadata !{i128 %tmp_V_2}, i64 0, metadata !2579), !dbg !2582 ; [debug line = 99:31@121:20] [debug variable = tmp.V]
  call void @llvm.dbg.value(metadata !{i128 %tmp_V_2}, i64 0, metadata !2579), !dbg !2582 ; [debug line = 99:31@121:20] [debug variable = tmp.V]
  call void @llvm.dbg.value(metadata !{i128 %tmp_V_2}, i64 0, metadata !2579), !dbg !2582 ; [debug line = 99:31@121:20] [debug variable = tmp.V]
  call void @llvm.dbg.value(metadata !{i128 %tmp_V_2}, i64 0, metadata !2579), !dbg !2582 ; [debug line = 99:31@121:20] [debug variable = tmp.V]
  call void @llvm.dbg.value(metadata !{i128 %tmp_V_2}, i64 0, metadata !2579), !dbg !2582 ; [debug line = 99:31@121:20] [debug variable = tmp.V]
  call void @llvm.dbg.value(metadata !{i128 %tmp_V_2}, i64 0, metadata !2579), !dbg !2582 ; [debug line = 99:31@121:20] [debug variable = tmp.V]
  call void @llvm.dbg.value(metadata !{i128 %tmp_V_2}, i64 0, metadata !2579), !dbg !2582 ; [debug line = 99:31@121:20] [debug variable = tmp.V]
  call void @llvm.dbg.value(metadata !{i128 %tmp_V_2}, i64 0, metadata !2579), !dbg !2582 ; [debug line = 99:31@121:20] [debug variable = tmp.V]
  call void @llvm.dbg.value(metadata !{i128 %tmp_V_2}, i64 0, metadata !2579), !dbg !2582 ; [debug line = 99:31@121:20] [debug variable = tmp.V]
  call void @llvm.dbg.value(metadata !{i128 %tmp_V_2}, i64 0, metadata !2579), !dbg !2582 ; [debug line = 99:31@121:20] [debug variable = tmp.V]
  call void @llvm.dbg.value(metadata !{i128 %tmp_V_2}, i64 0, metadata !2579), !dbg !2582 ; [debug line = 99:31@121:20] [debug variable = tmp.V]
  call void @_ssdm_op_Write.axis.volatile.i128P(i128* %out_stream_V_V, i128 %tmp_V_2), !dbg !2583 ; [debug line = 100:9@121:20]
  call void @llvm.dbg.value(metadata !{i32 %i_1}, i64 0, metadata !2584), !dbg !2562 ; [debug line = 118:21] [debug variable = i]
  br label %7, !dbg !2562                         ; [debug line = 118:21]

; <label>:9                                       ; preds = %7
  ret i32 %read_length, !dbg !2585                ; [debug line = 123:2]
}

; [#uses=15]
define weak void @_ssdm_op_SpecWire(...) nounwind {
entry:
  ret void
}

; [#uses=284]
declare void @llvm.dbg.value(metadata, i64, metadata) nounwind readnone

; [#uses=1]
define weak void @_ssdm_op_SpecTopModule(...) {
entry:
  ret void
}

; [#uses=12]
define weak void @_ssdm_op_SpecBitsMap(...) {
entry:
  ret void
}

; [#uses=1]
declare void @_GLOBAL__I_a() nounwind section ".text.startup"

; [#uses=2]
define weak i72 @_ssdm_op_BitConcatenate.i72.i8.i32.i28.i4(i8, i32, i28, i4) nounwind readnone {
entry:
  %empty = zext i28 %2 to i32                     ; [#uses=1 type=i32]
  %empty_17 = zext i4 %3 to i32                   ; [#uses=2 type=i32]
  %empty_18 = trunc i32 %empty to i28             ; [#uses=1 type=i28]
  %empty_19 = call i28 @_ssdm_op_PartSelect.i28.i32.i32.i32(i32 %empty_17, i32 4, i32 31) ; [#uses=1 type=i28]
  %empty_20 = or i28 %empty_18, %empty_19         ; [#uses=1 type=i28]
  %empty_21 = call i32 @_ssdm_op_PartSet.i32.i32.i28.i32.i32(i32 %empty_17, i28 %empty_20, i32 4, i32 31) ; [#uses=1 type=i32]
  %empty_22 = zext i32 %1 to i64                  ; [#uses=1 type=i64]
  %empty_23 = zext i32 %empty_21 to i64           ; [#uses=2 type=i64]
  %empty_24 = trunc i64 %empty_22 to i32          ; [#uses=1 type=i32]
  %empty_25 = call i32 @_ssdm_op_PartSelect.i32.i64.i32.i32(i64 %empty_23, i32 32, i32 63) ; [#uses=1 type=i32]
  %empty_26 = or i32 %empty_24, %empty_25         ; [#uses=1 type=i32]
  %empty_27 = call i64 @_ssdm_op_PartSet.i64.i64.i32.i32.i32(i64 %empty_23, i32 %empty_26, i32 32, i32 63) ; [#uses=1 type=i64]
  %empty_28 = zext i8 %0 to i72                   ; [#uses=1 type=i72]
  %empty_29 = zext i64 %empty_27 to i72           ; [#uses=2 type=i72]
  %empty_30 = trunc i72 %empty_28 to i8           ; [#uses=1 type=i8]
  %empty_31 = call i8 @_ssdm_op_PartSelect.i8.i72.i32.i32(i72 %empty_29, i32 64, i32 71) ; [#uses=1 type=i8]
  %empty_32 = or i8 %empty_30, %empty_31          ; [#uses=1 type=i8]
  %empty_33 = call i72 @_ssdm_op_PartSet.i72.i72.i8.i32.i32(i72 %empty_29, i8 %empty_32, i32 64, i32 71) ; [#uses=1 type=i72]
  ret i72 %empty_33
}

; [#uses=3]
define weak i32 @_ssdm_op_Read.ap_vld.i32(i32) {
entry:
  ret i32 %0
}

; [#uses=4]
define weak void @_ssdm_op_Write.ap_none.volatile.i1P(i1*, i1) {
entry:
  store i1 %1, i1* %0
  ret void
}

; [#uses=2]
define weak i1 @_ssdm_op_Read.ap_none.volatile.i1P(i1*) {
entry:
  %empty = load i1* %0                            ; [#uses=1 type=i1]
  ret i1 %empty
}

; [#uses=2]
define weak void @_ssdm_op_Write.axis.volatile.i72P(i72*, i72) {
entry:
  store i72 %1, i72* %0
  ret void
}

; [#uses=1]
define weak i128 @_ssdm_op_Read.axis.volatile.i128P(i128*) {
entry:
  %empty = load i128* %0                          ; [#uses=1 type=i128]
  ret i128 %empty
}

; [#uses=1]
define weak void @_ssdm_op_Write.axis.volatile.i128P(i128*, i128) {
entry:
  store i128 %1, i128* %0
  ret void
}

; [#uses=1]
define weak i28 @_ssdm_op_PartSelect.i28.i32.i32.i32(i32, i32, i32) nounwind readnone {
entry:
  %empty = call i32 @llvm.part.select.i32(i32 %0, i32 %1, i32 %2) ; [#uses=1 type=i32]
  %empty_34 = trunc i32 %empty to i28             ; [#uses=1 type=i28]
  ret i28 %empty_34
}

; [#uses=0]
declare i32 @_ssdm_op_BitConcatenate.i32.i28.i4(i28, i4) nounwind readnone

; [#uses=1]
define weak i32 @_ssdm_op_PartSet.i32.i32.i28.i32.i32(i32, i28, i32, i32) nounwind readnone {
entry:
  %empty = call i32 @llvm.part.set.i32.i28(i32 %0, i28 %1, i32 %2, i32 %3) ; [#uses=1 type=i32]
  ret i32 %empty
}

; [#uses=1]
define weak i32 @_ssdm_op_PartSelect.i32.i64.i32.i32(i64, i32, i32) nounwind readnone {
entry:
  %empty = call i64 @llvm.part.select.i64(i64 %0, i32 %1, i32 %2) ; [#uses=1 type=i64]
  %empty_35 = trunc i64 %empty to i32             ; [#uses=1 type=i32]
  ret i32 %empty_35
}

; [#uses=1]
define weak i64 @_ssdm_op_PartSet.i64.i64.i32.i32.i32(i64, i32, i32, i32) nounwind readnone {
entry:
  %empty = call i64 @llvm.part.set.i64.i32(i64 %0, i32 %1, i32 %2, i32 %3) ; [#uses=1 type=i64]
  ret i64 %empty
}

; [#uses=1]
define weak i8 @_ssdm_op_PartSelect.i8.i72.i32.i32(i72, i32, i32) nounwind readnone {
entry:
  %empty = call i72 @llvm.part.select.i72(i72 %0, i32 %1, i32 %2) ; [#uses=1 type=i72]
  %empty_36 = trunc i72 %empty to i8              ; [#uses=1 type=i8]
  ret i8 %empty_36
}

; [#uses=1]
define weak i72 @_ssdm_op_PartSet.i72.i72.i8.i32.i32(i72, i8, i32, i32) nounwind readnone {
entry:
  %empty = call i72 @llvm.part.set.i72.i8(i72 %0, i8 %1, i32 %2, i32 %3) ; [#uses=1 type=i72]
  ret i72 %empty
}

; [#uses=1]
declare i32 @llvm.part.select.i32(i32, i32, i32) nounwind readnone

; [#uses=1]
declare i32 @llvm.part.set.i32.i28(i32, i28, i32, i32) nounwind readnone

; [#uses=1]
declare i64 @llvm.part.select.i64(i64, i32, i32) nounwind readnone

; [#uses=1]
declare i64 @llvm.part.set.i64.i32(i64, i32, i32, i32) nounwind readnone

; [#uses=1]
declare i72 @llvm.part.select.i72(i72, i32, i32) nounwind readnone

; [#uses=1]
declare i72 @llvm.part.set.i72.i8(i72, i8, i32, i32) nounwind readnone

!llvm.map.gv = !{!0}

!0 = metadata !{metadata !1, [1 x i32]* @llvm_global_ctors_0}
!1 = metadata !{metadata !2}
!2 = metadata !{i32 0, i32 31, metadata !3}
!3 = metadata !{metadata !4}
!4 = metadata !{metadata !"llvm.global_ctors.0", metadata !5, metadata !""}
!5 = metadata !{metadata !6}
!6 = metadata !{i32 0, i32 0, i32 1}
!7 = metadata !{metadata !8}
!8 = metadata !{i32 0, i32 71, metadata !9}
!9 = metadata !{metadata !10}
!10 = metadata !{metadata !"read_mover.V.V", metadata !5, metadata !"uint72"}
!11 = metadata !{metadata !12}
!12 = metadata !{i32 0, i32 71, metadata !13}
!13 = metadata !{metadata !14}
!14 = metadata !{metadata !"write_mover.V.V", metadata !5, metadata !"uint72"}
!15 = metadata !{metadata !16}
!16 = metadata !{i32 0, i32 127, metadata !17}
!17 = metadata !{metadata !18}
!18 = metadata !{metadata !"in_stream.V.V", metadata !5, metadata !"uint128"}
!19 = metadata !{metadata !20}
!20 = metadata !{i32 0, i32 127, metadata !21}
!21 = metadata !{metadata !22}
!22 = metadata !{metadata !"out_stream.V.V", metadata !5, metadata !"uint128"}
!23 = metadata !{metadata !24}
!24 = metadata !{i32 0, i32 31, metadata !25}
!25 = metadata !{metadata !26}
!26 = metadata !{metadata !"sourceAddress", metadata !27, metadata !"unsigned int"}
!27 = metadata !{metadata !28}
!28 = metadata !{i32 0, i32 0, i32 0}
!29 = metadata !{metadata !30}
!30 = metadata !{i32 0, i32 31, metadata !31}
!31 = metadata !{metadata !32}
!32 = metadata !{metadata !"destinationAddress", metadata !27, metadata !"unsigned int"}
!33 = metadata !{metadata !34}
!34 = metadata !{i32 0, i32 31, metadata !35}
!35 = metadata !{metadata !36}
!36 = metadata !{metadata !"length", metadata !27, metadata !"int"}
!37 = metadata !{metadata !38}
!38 = metadata !{i32 0, i32 0, metadata !39}
!39 = metadata !{metadata !40}
!40 = metadata !{metadata !"read_mover_halt", metadata !5, metadata !"bool"}
!41 = metadata !{metadata !42}
!42 = metadata !{i32 0, i32 0, metadata !43}
!43 = metadata !{metadata !44}
!44 = metadata !{metadata !"read_mover_halt_complete", metadata !5, metadata !"bool"}
!45 = metadata !{metadata !46}
!46 = metadata !{i32 0, i32 0, metadata !47}
!47 = metadata !{metadata !48}
!48 = metadata !{metadata !"write_mover_halt", metadata !5, metadata !"bool"}
!49 = metadata !{metadata !50}
!50 = metadata !{i32 0, i32 0, metadata !51}
!51 = metadata !{metadata !52}
!52 = metadata !{metadata !"write_mover_halt_complete", metadata !5, metadata !"bool"}
!53 = metadata !{metadata !54}
!54 = metadata !{i32 0, i32 31, metadata !55}
!55 = metadata !{metadata !56}
!56 = metadata !{metadata !"return", metadata !57, metadata !"int"}
!57 = metadata !{metadata !58}
!58 = metadata !{i32 0, i32 1, i32 0}
!59 = metadata !{i32 786689, metadata !60, metadata !"length", metadata !61, i32 117440523, metadata !2271, i32 0, i32 0} ; [ DW_TAG_arg_variable ]
!60 = metadata !{i32 786478, i32 0, metadata !61, metadata !"test_direct_dma", metadata !"test_direct_dma", metadata !"_Z15test_direct_dmaRN3hls6streamI7ap_uintILi72EEEES4_RNS0_IS1_ILi128EEEES7_jjiPVbS9_S9_S9_", metadata !61, i32 10, metadata !62, i1 false, i1 true, i32 0, i32 0, null, i32 256, i1 false, null, null, null, metadata !89, i32 12} ; [ DW_TAG_subprogram ]
!61 = metadata !{i32 786473, metadata !"test_direct_dma/source/test_direct_dma.cpp", metadata !"/D/xilinx_workspace", null} ; [ DW_TAG_file_type ]
!62 = metadata !{i32 786453, i32 0, metadata !"", i32 0, i32 0, i64 0, i64 0, i64 0, i32 0, null, metadata !63, i32 0, i32 0} ; [ DW_TAG_subroutine_type ]
!63 = metadata !{metadata !64, metadata !65, metadata !65, metadata !1945, metadata !1945, metadata !2270, metadata !2270, metadata !2271, metadata !2272, metadata !2272, metadata !2272, metadata !2272}
!64 = metadata !{i32 786468, null, metadata !"int", null, i32 0, i64 32, i64 32, i64 0, i32 0, i32 5} ; [ DW_TAG_base_type ]
!65 = metadata !{i32 786448, null, null, null, i32 0, i64 0, i64 0, i64 0, i32 0, metadata !66} ; [ DW_TAG_reference_type ]
!66 = metadata !{i32 786454, null, metadata !"datamover_ctl", metadata !61, i32 8, i64 0, i64 0, i64 0, i32 0, metadata !67} ; [ DW_TAG_typedef ]
!67 = metadata !{i32 786434, metadata !68, metadata !"stream<ap_uint<72> >", metadata !69, i32 33, i64 128, i64 64, i32 0, i32 0, null, metadata !70, i32 0, null, metadata !1943} ; [ DW_TAG_class_type ]
!68 = metadata !{i32 786489, null, metadata !"hls", metadata !69, i32 23} ; [ DW_TAG_namespace ]
!69 = metadata !{i32 786473, metadata !"/Xilinx/Vivado_HLS/2014.1/common/technology/autopilot/hls_stream.h", metadata !"/D/xilinx_workspace", null} ; [ DW_TAG_file_type ]
!70 = metadata !{metadata !71, metadata !1909, metadata !1913, metadata !1916, metadata !1920, metadata !1923, metadata !1926, metadata !1927, metadata !1932, metadata !1933, metadata !1934, metadata !1937, metadata !1940, metadata !1941, metadata !1942, metadata !1942}
!71 = metadata !{i32 786445, metadata !67, metadata !"V", metadata !69, i32 111, i64 128, i64 64, i64 0, i32 1, metadata !72} ; [ DW_TAG_member ]
!72 = metadata !{i32 786434, null, metadata !"ap_uint<72>", metadata !73, i32 134, i64 128, i64 64, i32 0, i32 0, null, metadata !74, i32 0, null, metadata !1908} ; [ DW_TAG_class_type ]
!73 = metadata !{i32 786473, metadata !"/Xilinx/Vivado_HLS/2014.1/common/technology/autopilot/ap_int.h", metadata !"/D/xilinx_workspace", null} ; [ DW_TAG_file_type ]
!74 = metadata !{metadata !75, metadata !328, metadata !332, metadata !337, metadata !338, metadata !1842, metadata !1845, metadata !1848, metadata !1851, metadata !1854, metadata !1857, metadata !1860, metadata !1863, metadata !1866, metadata !1869, metadata !1872, metadata !1875, metadata !1878, metadata !1881, metadata !1884, metadata !1887, metadata !1890, metadata !1895, metadata !1896, metadata !1899, metadata !1900, metadata !1905, metadata !1906, metadata !1906}
!75 = metadata !{i32 786460, metadata !72, null, metadata !73, i32 0, i64 0, i64 0, i64 0, i32 0, metadata !76} ; [ DW_TAG_inheritance ]
!76 = metadata !{i32 786434, null, metadata !"ap_int_base<72, false, false>", metadata !77, i32 2234, i64 128, i64 64, i32 0, i32 0, null, metadata !78, i32 0, null, metadata !326} ; [ DW_TAG_class_type ]
!77 = metadata !{i32 786473, metadata !"/Xilinx/Vivado_HLS/2014.1/common/technology/autopilot/ap_int_syn.h", metadata !"/D/xilinx_workspace", null} ; [ DW_TAG_file_type ]
!78 = metadata !{metadata !79, metadata !100, metadata !104, metadata !111, metadata !112, metadata !115, metadata !119, metadata !123, metadata !127, metadata !131, metadata !134, metadata !138, metadata !142, metadata !146, metadata !151, metadata !156, metadata !160, metadata !164, metadata !170, metadata !173, metadata !178, metadata !181, metadata !182, metadata !183, metadata !186, metadata !187, metadata !190, metadata !193, metadata !196, metadata !199, metadata !204, metadata !207, metadata !210, metadata !213, metadata !216, metadata !219, metadata !222, metadata !225, metadata !226, metadata !231, metadata !234, metadata !235, metadata !236, metadata !237, metadata !238, metadata !239, metadata !242, metadata !243, metadata !246, metadata !247, metadata !248, metadata !249, metadata !250, metadata !251, metadata !254, metadata !255, metadata !256, metadata !259, metadata !260, metadata !263, metadata !272, metadata !273, metadata !276, metadata !280, metadata !281, metadata !284, metadata !285, metadata !289, metadata !290, metadata !291, metadata !292, metadata !295, metadata !296, metadata !297, metadata !298, metadata !299, metadata !300, metadata !301, metadata !302, metadata !303, metadata !304, metadata !305, metadata !306, metadata !316, metadata !319, metadata !322}
!79 = metadata !{i32 786460, metadata !76, null, metadata !77, i32 0, i64 0, i64 0, i64 0, i32 0, metadata !80} ; [ DW_TAG_inheritance ]
!80 = metadata !{i32 786434, null, metadata !"ssdm_int<72 + 1024 * 0, false>", metadata !81, i32 80, i64 128, i64 64, i32 0, i32 0, null, metadata !82, i32 0, null, metadata !96} ; [ DW_TAG_class_type ]
!81 = metadata !{i32 786473, metadata !"/Xilinx/Vivado_HLS/2014.1/common/technology/autopilot/etc/autopilot_dt.def", metadata !"/D/xilinx_workspace", null} ; [ DW_TAG_file_type ]
!82 = metadata !{metadata !83, metadata !85, metadata !91}
!83 = metadata !{i32 786445, metadata !80, metadata !"V", metadata !81, i32 80, i64 72, i64 64, i64 0, i32 0, metadata !84} ; [ DW_TAG_member ]
!84 = metadata !{i32 786468, null, metadata !"uint72", null, i32 0, i64 72, i64 64, i64 0, i32 0, i32 7} ; [ DW_TAG_base_type ]
!85 = metadata !{i32 786478, i32 0, metadata !80, metadata !"ssdm_int", metadata !"ssdm_int", metadata !"", metadata !81, i32 80, metadata !86, i1 false, i1 false, i32 0, i32 0, null, i32 256, i1 false, null, null, i32 0, metadata !89, i32 80} ; [ DW_TAG_subprogram ]
!86 = metadata !{i32 786453, i32 0, metadata !"", i32 0, i32 0, i64 0, i64 0, i64 0, i32 0, null, metadata !87, i32 0, i32 0} ; [ DW_TAG_subroutine_type ]
!87 = metadata !{null, metadata !88}
!88 = metadata !{i32 786447, i32 0, metadata !"", i32 0, i32 0, i64 64, i64 64, i64 0, i32 64, metadata !80} ; [ DW_TAG_pointer_type ]
!89 = metadata !{metadata !90}
!90 = metadata !{i32 786468}                      ; [ DW_TAG_base_type ]
!91 = metadata !{i32 786478, i32 0, metadata !80, metadata !"ssdm_int", metadata !"ssdm_int", metadata !"", metadata !81, i32 80, metadata !92, i1 false, i1 false, i32 0, i32 0, null, i32 320, i1 false, null, null, i32 0, metadata !89, i32 80} ; [ DW_TAG_subprogram ]
!92 = metadata !{i32 786453, i32 0, metadata !"", i32 0, i32 0, i64 0, i64 0, i64 0, i32 0, null, metadata !93, i32 0, i32 0} ; [ DW_TAG_subroutine_type ]
!93 = metadata !{null, metadata !88, metadata !94}
!94 = metadata !{i32 786448, null, null, null, i32 0, i64 0, i64 0, i64 0, i32 0, metadata !95} ; [ DW_TAG_reference_type ]
!95 = metadata !{i32 786470, null, metadata !"", null, i32 0, i64 0, i64 0, i64 0, i32 0, metadata !80} ; [ DW_TAG_const_type ]
!96 = metadata !{metadata !97, metadata !98}
!97 = metadata !{i32 786480, null, metadata !"_AP_N", metadata !64, i64 72, null, i32 0, i32 0} ; [ DW_TAG_template_value_parameter ]
!98 = metadata !{i32 786480, null, metadata !"_AP_S", metadata !99, i64 0, null, i32 0, i32 0} ; [ DW_TAG_template_value_parameter ]
!99 = metadata !{i32 786468, null, metadata !"bool", null, i32 0, i64 8, i64 8, i64 0, i32 0, i32 2} ; [ DW_TAG_base_type ]
!100 = metadata !{i32 786478, i32 0, metadata !76, metadata !"ap_int_base", metadata !"ap_int_base", metadata !"", metadata !77, i32 2270, metadata !101, i1 false, i1 false, i32 0, i32 0, null, i32 256, i1 false, null, null, i32 0, metadata !89, i32 2270} ; [ DW_TAG_subprogram ]
!101 = metadata !{i32 786453, i32 0, metadata !"", i32 0, i32 0, i64 0, i64 0, i64 0, i32 0, null, metadata !102, i32 0, i32 0} ; [ DW_TAG_subroutine_type ]
!102 = metadata !{null, metadata !103}
!103 = metadata !{i32 786447, i32 0, metadata !"", i32 0, i32 0, i64 64, i64 64, i64 0, i32 64, metadata !76} ; [ DW_TAG_pointer_type ]
!104 = metadata !{i32 786478, i32 0, metadata !76, metadata !"ap_int_base<72, false>", metadata !"ap_int_base<72, false>", metadata !"", metadata !77, i32 2282, metadata !105, i1 false, i1 false, i32 0, i32 0, null, i32 256, i1 false, null, metadata !108, i32 0, metadata !89, i32 2282} ; [ DW_TAG_subprogram ]
!105 = metadata !{i32 786453, i32 0, metadata !"", i32 0, i32 0, i64 0, i64 0, i64 0, i32 0, null, metadata !106, i32 0, i32 0} ; [ DW_TAG_subroutine_type ]
!106 = metadata !{null, metadata !103, metadata !107}
!107 = metadata !{i32 786448, null, null, null, i32 0, i64 0, i64 0, i64 0, i32 0, metadata !76} ; [ DW_TAG_reference_type ]
!108 = metadata !{metadata !109, metadata !110}
!109 = metadata !{i32 786480, null, metadata !"_AP_W2", metadata !64, i64 72, null, i32 0, i32 0} ; [ DW_TAG_template_value_parameter ]
!110 = metadata !{i32 786480, null, metadata !"_AP_S2", metadata !99, i64 0, null, i32 0, i32 0} ; [ DW_TAG_template_value_parameter ]
!111 = metadata !{i32 786478, i32 0, metadata !76, metadata !"ap_int_base<72, false>", metadata !"ap_int_base<72, false>", metadata !"", metadata !77, i32 2285, metadata !105, i1 false, i1 false, i32 0, i32 0, null, i32 256, i1 false, null, metadata !108, i32 0, metadata !89, i32 2285} ; [ DW_TAG_subprogram ]
!112 = metadata !{i32 786478, i32 0, metadata !76, metadata !"ap_int_base", metadata !"ap_int_base", metadata !"", metadata !77, i32 2292, metadata !113, i1 false, i1 false, i32 0, i32 0, null, i32 384, i1 false, null, null, i32 0, metadata !89, i32 2292} ; [ DW_TAG_subprogram ]
!113 = metadata !{i32 786453, i32 0, metadata !"", i32 0, i32 0, i64 0, i64 0, i64 0, i32 0, null, metadata !114, i32 0, i32 0} ; [ DW_TAG_subroutine_type ]
!114 = metadata !{null, metadata !103, metadata !99}
!115 = metadata !{i32 786478, i32 0, metadata !76, metadata !"ap_int_base", metadata !"ap_int_base", metadata !"", metadata !77, i32 2293, metadata !116, i1 false, i1 false, i32 0, i32 0, null, i32 384, i1 false, null, null, i32 0, metadata !89, i32 2293} ; [ DW_TAG_subprogram ]
!116 = metadata !{i32 786453, i32 0, metadata !"", i32 0, i32 0, i64 0, i64 0, i64 0, i32 0, null, metadata !117, i32 0, i32 0} ; [ DW_TAG_subroutine_type ]
!117 = metadata !{null, metadata !103, metadata !118}
!118 = metadata !{i32 786468, null, metadata !"signed char", null, i32 0, i64 8, i64 8, i64 0, i32 0, i32 6} ; [ DW_TAG_base_type ]
!119 = metadata !{i32 786478, i32 0, metadata !76, metadata !"ap_int_base", metadata !"ap_int_base", metadata !"", metadata !77, i32 2294, metadata !120, i1 false, i1 false, i32 0, i32 0, null, i32 384, i1 false, null, null, i32 0, metadata !89, i32 2294} ; [ DW_TAG_subprogram ]
!120 = metadata !{i32 786453, i32 0, metadata !"", i32 0, i32 0, i64 0, i64 0, i64 0, i32 0, null, metadata !121, i32 0, i32 0} ; [ DW_TAG_subroutine_type ]
!121 = metadata !{null, metadata !103, metadata !122}
!122 = metadata !{i32 786468, null, metadata !"unsigned char", null, i32 0, i64 8, i64 8, i64 0, i32 0, i32 8} ; [ DW_TAG_base_type ]
!123 = metadata !{i32 786478, i32 0, metadata !76, metadata !"ap_int_base", metadata !"ap_int_base", metadata !"", metadata !77, i32 2295, metadata !124, i1 false, i1 false, i32 0, i32 0, null, i32 384, i1 false, null, null, i32 0, metadata !89, i32 2295} ; [ DW_TAG_subprogram ]
!124 = metadata !{i32 786453, i32 0, metadata !"", i32 0, i32 0, i64 0, i64 0, i64 0, i32 0, null, metadata !125, i32 0, i32 0} ; [ DW_TAG_subroutine_type ]
!125 = metadata !{null, metadata !103, metadata !126}
!126 = metadata !{i32 786468, null, metadata !"short", null, i32 0, i64 16, i64 16, i64 0, i32 0, i32 5} ; [ DW_TAG_base_type ]
!127 = metadata !{i32 786478, i32 0, metadata !76, metadata !"ap_int_base", metadata !"ap_int_base", metadata !"", metadata !77, i32 2296, metadata !128, i1 false, i1 false, i32 0, i32 0, null, i32 384, i1 false, null, null, i32 0, metadata !89, i32 2296} ; [ DW_TAG_subprogram ]
!128 = metadata !{i32 786453, i32 0, metadata !"", i32 0, i32 0, i64 0, i64 0, i64 0, i32 0, null, metadata !129, i32 0, i32 0} ; [ DW_TAG_subroutine_type ]
!129 = metadata !{null, metadata !103, metadata !130}
!130 = metadata !{i32 786468, null, metadata !"unsigned short", null, i32 0, i64 16, i64 16, i64 0, i32 0, i32 7} ; [ DW_TAG_base_type ]
!131 = metadata !{i32 786478, i32 0, metadata !76, metadata !"ap_int_base", metadata !"ap_int_base", metadata !"", metadata !77, i32 2297, metadata !132, i1 false, i1 false, i32 0, i32 0, null, i32 384, i1 false, null, null, i32 0, metadata !89, i32 2297} ; [ DW_TAG_subprogram ]
!132 = metadata !{i32 786453, i32 0, metadata !"", i32 0, i32 0, i64 0, i64 0, i64 0, i32 0, null, metadata !133, i32 0, i32 0} ; [ DW_TAG_subroutine_type ]
!133 = metadata !{null, metadata !103, metadata !64}
!134 = metadata !{i32 786478, i32 0, metadata !76, metadata !"ap_int_base", metadata !"ap_int_base", metadata !"", metadata !77, i32 2298, metadata !135, i1 false, i1 false, i32 0, i32 0, null, i32 384, i1 false, null, null, i32 0, metadata !89, i32 2298} ; [ DW_TAG_subprogram ]
!135 = metadata !{i32 786453, i32 0, metadata !"", i32 0, i32 0, i64 0, i64 0, i64 0, i32 0, null, metadata !136, i32 0, i32 0} ; [ DW_TAG_subroutine_type ]
!136 = metadata !{null, metadata !103, metadata !137}
!137 = metadata !{i32 786468, null, metadata !"unsigned int", null, i32 0, i64 32, i64 32, i64 0, i32 0, i32 7} ; [ DW_TAG_base_type ]
!138 = metadata !{i32 786478, i32 0, metadata !76, metadata !"ap_int_base", metadata !"ap_int_base", metadata !"", metadata !77, i32 2299, metadata !139, i1 false, i1 false, i32 0, i32 0, null, i32 384, i1 false, null, null, i32 0, metadata !89, i32 2299} ; [ DW_TAG_subprogram ]
!139 = metadata !{i32 786453, i32 0, metadata !"", i32 0, i32 0, i64 0, i64 0, i64 0, i32 0, null, metadata !140, i32 0, i32 0} ; [ DW_TAG_subroutine_type ]
!140 = metadata !{null, metadata !103, metadata !141}
!141 = metadata !{i32 786468, null, metadata !"long int", null, i32 0, i64 64, i64 64, i64 0, i32 0, i32 5} ; [ DW_TAG_base_type ]
!142 = metadata !{i32 786478, i32 0, metadata !76, metadata !"ap_int_base", metadata !"ap_int_base", metadata !"", metadata !77, i32 2300, metadata !143, i1 false, i1 false, i32 0, i32 0, null, i32 384, i1 false, null, null, i32 0, metadata !89, i32 2300} ; [ DW_TAG_subprogram ]
!143 = metadata !{i32 786453, i32 0, metadata !"", i32 0, i32 0, i64 0, i64 0, i64 0, i32 0, null, metadata !144, i32 0, i32 0} ; [ DW_TAG_subroutine_type ]
!144 = metadata !{null, metadata !103, metadata !145}
!145 = metadata !{i32 786468, null, metadata !"long unsigned int", null, i32 0, i64 64, i64 64, i64 0, i32 0, i32 7} ; [ DW_TAG_base_type ]
!146 = metadata !{i32 786478, i32 0, metadata !76, metadata !"ap_int_base", metadata !"ap_int_base", metadata !"", metadata !77, i32 2301, metadata !147, i1 false, i1 false, i32 0, i32 0, null, i32 384, i1 false, null, null, i32 0, metadata !89, i32 2301} ; [ DW_TAG_subprogram ]
!147 = metadata !{i32 786453, i32 0, metadata !"", i32 0, i32 0, i64 0, i64 0, i64 0, i32 0, null, metadata !148, i32 0, i32 0} ; [ DW_TAG_subroutine_type ]
!148 = metadata !{null, metadata !103, metadata !149}
!149 = metadata !{i32 786454, null, metadata !"ap_slong", metadata !77, i32 66, i64 0, i64 0, i64 0, i32 0, metadata !150} ; [ DW_TAG_typedef ]
!150 = metadata !{i32 786468, null, metadata !"long long int", null, i32 0, i64 64, i64 64, i64 0, i32 0, i32 5} ; [ DW_TAG_base_type ]
!151 = metadata !{i32 786478, i32 0, metadata !76, metadata !"ap_int_base", metadata !"ap_int_base", metadata !"", metadata !77, i32 2302, metadata !152, i1 false, i1 false, i32 0, i32 0, null, i32 384, i1 false, null, null, i32 0, metadata !89, i32 2302} ; [ DW_TAG_subprogram ]
!152 = metadata !{i32 786453, i32 0, metadata !"", i32 0, i32 0, i64 0, i64 0, i64 0, i32 0, null, metadata !153, i32 0, i32 0} ; [ DW_TAG_subroutine_type ]
!153 = metadata !{null, metadata !103, metadata !154}
!154 = metadata !{i32 786454, null, metadata !"ap_ulong", metadata !77, i32 65, i64 0, i64 0, i64 0, i32 0, metadata !155} ; [ DW_TAG_typedef ]
!155 = metadata !{i32 786468, null, metadata !"long long unsigned int", null, i32 0, i64 64, i64 64, i64 0, i32 0, i32 7} ; [ DW_TAG_base_type ]
!156 = metadata !{i32 786478, i32 0, metadata !76, metadata !"ap_int_base", metadata !"ap_int_base", metadata !"", metadata !77, i32 2303, metadata !157, i1 false, i1 false, i32 0, i32 0, null, i32 384, i1 false, null, null, i32 0, metadata !89, i32 2303} ; [ DW_TAG_subprogram ]
!157 = metadata !{i32 786453, i32 0, metadata !"", i32 0, i32 0, i64 0, i64 0, i64 0, i32 0, null, metadata !158, i32 0, i32 0} ; [ DW_TAG_subroutine_type ]
!158 = metadata !{null, metadata !103, metadata !159}
!159 = metadata !{i32 786468, null, metadata !"float", null, i32 0, i64 32, i64 32, i64 0, i32 0, i32 4} ; [ DW_TAG_base_type ]
!160 = metadata !{i32 786478, i32 0, metadata !76, metadata !"ap_int_base", metadata !"ap_int_base", metadata !"", metadata !77, i32 2304, metadata !161, i1 false, i1 false, i32 0, i32 0, null, i32 384, i1 false, null, null, i32 0, metadata !89, i32 2304} ; [ DW_TAG_subprogram ]
!161 = metadata !{i32 786453, i32 0, metadata !"", i32 0, i32 0, i64 0, i64 0, i64 0, i32 0, null, metadata !162, i32 0, i32 0} ; [ DW_TAG_subroutine_type ]
!162 = metadata !{null, metadata !103, metadata !163}
!163 = metadata !{i32 786468, null, metadata !"double", null, i32 0, i64 64, i64 64, i64 0, i32 0, i32 4} ; [ DW_TAG_base_type ]
!164 = metadata !{i32 786478, i32 0, metadata !76, metadata !"ap_int_base", metadata !"ap_int_base", metadata !"", metadata !77, i32 2331, metadata !165, i1 false, i1 false, i32 0, i32 0, null, i32 256, i1 false, null, null, i32 0, metadata !89, i32 2331} ; [ DW_TAG_subprogram ]
!165 = metadata !{i32 786453, i32 0, metadata !"", i32 0, i32 0, i64 0, i64 0, i64 0, i32 0, null, metadata !166, i32 0, i32 0} ; [ DW_TAG_subroutine_type ]
!166 = metadata !{null, metadata !103, metadata !167}
!167 = metadata !{i32 786447, null, metadata !"", null, i32 0, i64 64, i64 64, i64 0, i32 0, metadata !168} ; [ DW_TAG_pointer_type ]
!168 = metadata !{i32 786470, null, metadata !"", null, i32 0, i64 0, i64 0, i64 0, i32 0, metadata !169} ; [ DW_TAG_const_type ]
!169 = metadata !{i32 786468, null, metadata !"char", null, i32 0, i64 8, i64 8, i64 0, i32 0, i32 6} ; [ DW_TAG_base_type ]
!170 = metadata !{i32 786478, i32 0, metadata !76, metadata !"ap_int_base", metadata !"ap_int_base", metadata !"", metadata !77, i32 2338, metadata !171, i1 false, i1 false, i32 0, i32 0, null, i32 256, i1 false, null, null, i32 0, metadata !89, i32 2338} ; [ DW_TAG_subprogram ]
!171 = metadata !{i32 786453, i32 0, metadata !"", i32 0, i32 0, i64 0, i64 0, i64 0, i32 0, null, metadata !172, i32 0, i32 0} ; [ DW_TAG_subroutine_type ]
!172 = metadata !{null, metadata !103, metadata !167, metadata !118}
!173 = metadata !{i32 786478, i32 0, metadata !76, metadata !"read", metadata !"read", metadata !"_ZNV11ap_int_baseILi72ELb0ELb0EE4readEv", metadata !77, i32 2359, metadata !174, i1 false, i1 false, i32 0, i32 0, null, i32 256, i1 false, null, null, i32 0, metadata !89, i32 2359} ; [ DW_TAG_subprogram ]
!174 = metadata !{i32 786453, i32 0, metadata !"", i32 0, i32 0, i64 0, i64 0, i64 0, i32 0, null, metadata !175, i32 0, i32 0} ; [ DW_TAG_subroutine_type ]
!175 = metadata !{metadata !76, metadata !176}
!176 = metadata !{i32 786447, i32 0, metadata !"", i32 0, i32 0, i64 64, i64 64, i64 0, i32 64, metadata !177} ; [ DW_TAG_pointer_type ]
!177 = metadata !{i32 786485, null, metadata !"", null, i32 0, i64 0, i64 0, i64 0, i32 0, metadata !76} ; [ DW_TAG_volatile_type ]
!178 = metadata !{i32 786478, i32 0, metadata !76, metadata !"write", metadata !"write", metadata !"_ZNV11ap_int_baseILi72ELb0ELb0EE5writeERKS0_", metadata !77, i32 2365, metadata !179, i1 false, i1 false, i32 0, i32 0, null, i32 256, i1 false, null, null, i32 0, metadata !89, i32 2365} ; [ DW_TAG_subprogram ]
!179 = metadata !{i32 786453, i32 0, metadata !"", i32 0, i32 0, i64 0, i64 0, i64 0, i32 0, null, metadata !180, i32 0, i32 0} ; [ DW_TAG_subroutine_type ]
!180 = metadata !{null, metadata !176, metadata !107}
!181 = metadata !{i32 786478, i32 0, metadata !76, metadata !"operator=", metadata !"operator=", metadata !"_ZNV11ap_int_baseILi72ELb0ELb0EEaSERVKS0_", metadata !77, i32 2377, metadata !179, i1 false, i1 false, i32 0, i32 0, null, i32 256, i1 false, null, null, i32 0, metadata !89, i32 2377} ; [ DW_TAG_subprogram ]
!182 = metadata !{i32 786478, i32 0, metadata !76, metadata !"operator=", metadata !"operator=", metadata !"_ZNV11ap_int_baseILi72ELb0ELb0EEaSERKS0_", metadata !77, i32 2386, metadata !179, i1 false, i1 false, i32 0, i32 0, null, i32 256, i1 false, null, null, i32 0, metadata !89, i32 2386} ; [ DW_TAG_subprogram ]
!183 = metadata !{i32 786478, i32 0, metadata !76, metadata !"operator=", metadata !"operator=", metadata !"_ZN11ap_int_baseILi72ELb0ELb0EEaSERVKS0_", metadata !77, i32 2409, metadata !184, i1 false, i1 false, i32 0, i32 0, null, i32 256, i1 false, null, null, i32 0, metadata !89, i32 2409} ; [ DW_TAG_subprogram ]
!184 = metadata !{i32 786453, i32 0, metadata !"", i32 0, i32 0, i64 0, i64 0, i64 0, i32 0, null, metadata !185, i32 0, i32 0} ; [ DW_TAG_subroutine_type ]
!185 = metadata !{metadata !107, metadata !103, metadata !107}
!186 = metadata !{i32 786478, i32 0, metadata !76, metadata !"operator=", metadata !"operator=", metadata !"_ZN11ap_int_baseILi72ELb0ELb0EEaSERKS0_", metadata !77, i32 2414, metadata !184, i1 false, i1 false, i32 0, i32 0, null, i32 256, i1 false, null, null, i32 0, metadata !89, i32 2414} ; [ DW_TAG_subprogram ]
!187 = metadata !{i32 786478, i32 0, metadata !76, metadata !"operator=", metadata !"operator=", metadata !"_ZN11ap_int_baseILi72ELb0ELb0EEaSEPKc", metadata !77, i32 2418, metadata !188, i1 false, i1 false, i32 0, i32 0, null, i32 256, i1 false, null, null, i32 0, metadata !89, i32 2418} ; [ DW_TAG_subprogram ]
!188 = metadata !{i32 786453, i32 0, metadata !"", i32 0, i32 0, i64 0, i64 0, i64 0, i32 0, null, metadata !189, i32 0, i32 0} ; [ DW_TAG_subroutine_type ]
!189 = metadata !{metadata !107, metadata !103, metadata !167}
!190 = metadata !{i32 786478, i32 0, metadata !76, metadata !"set", metadata !"set", metadata !"_ZN11ap_int_baseILi72ELb0ELb0EE3setEPKca", metadata !77, i32 2426, metadata !191, i1 false, i1 false, i32 0, i32 0, null, i32 256, i1 false, null, null, i32 0, metadata !89, i32 2426} ; [ DW_TAG_subprogram ]
!191 = metadata !{i32 786453, i32 0, metadata !"", i32 0, i32 0, i64 0, i64 0, i64 0, i32 0, null, metadata !192, i32 0, i32 0} ; [ DW_TAG_subroutine_type ]
!192 = metadata !{metadata !107, metadata !103, metadata !167, metadata !118}
!193 = metadata !{i32 786478, i32 0, metadata !76, metadata !"operator=", metadata !"operator=", metadata !"_ZN11ap_int_baseILi72ELb0ELb0EEaSEy", metadata !77, i32 2435, metadata !194, i1 false, i1 false, i32 0, i32 0, null, i32 256, i1 false, null, null, i32 0, metadata !89, i32 2435} ; [ DW_TAG_subprogram ]
!194 = metadata !{i32 786453, i32 0, metadata !"", i32 0, i32 0, i64 0, i64 0, i64 0, i32 0, null, metadata !195, i32 0, i32 0} ; [ DW_TAG_subroutine_type ]
!195 = metadata !{metadata !107, metadata !103, metadata !155}
!196 = metadata !{i32 786478, i32 0, metadata !76, metadata !"operator=", metadata !"operator=", metadata !"_ZN11ap_int_baseILi72ELb0ELb0EEaSEx", metadata !77, i32 2440, metadata !197, i1 false, i1 false, i32 0, i32 0, null, i32 256, i1 false, null, null, i32 0, metadata !89, i32 2440} ; [ DW_TAG_subprogram ]
!197 = metadata !{i32 786453, i32 0, metadata !"", i32 0, i32 0, i64 0, i64 0, i64 0, i32 0, null, metadata !198, i32 0, i32 0} ; [ DW_TAG_subroutine_type ]
!198 = metadata !{metadata !107, metadata !103, metadata !150}
!199 = metadata !{i32 786478, i32 0, metadata !76, metadata !"to_bool", metadata !"to_bool", metadata !"_ZNK11ap_int_baseILi72ELb0ELb0EE7to_boolEv", metadata !77, i32 2486, metadata !200, i1 false, i1 false, i32 0, i32 0, null, i32 256, i1 false, null, null, i32 0, metadata !89, i32 2486} ; [ DW_TAG_subprogram ]
!200 = metadata !{i32 786453, i32 0, metadata !"", i32 0, i32 0, i64 0, i64 0, i64 0, i32 0, null, metadata !201, i32 0, i32 0} ; [ DW_TAG_subroutine_type ]
!201 = metadata !{metadata !99, metadata !202}
!202 = metadata !{i32 786447, i32 0, metadata !"", i32 0, i32 0, i64 64, i64 64, i64 0, i32 64, metadata !203} ; [ DW_TAG_pointer_type ]
!203 = metadata !{i32 786470, null, metadata !"", null, i32 0, i64 0, i64 0, i64 0, i32 0, metadata !76} ; [ DW_TAG_const_type ]
!204 = metadata !{i32 786478, i32 0, metadata !76, metadata !"to_int", metadata !"to_int", metadata !"_ZNK11ap_int_baseILi72ELb0ELb0EE6to_intEv", metadata !77, i32 2487, metadata !205, i1 false, i1 false, i32 0, i32 0, null, i32 256, i1 false, null, null, i32 0, metadata !89, i32 2487} ; [ DW_TAG_subprogram ]
!205 = metadata !{i32 786453, i32 0, metadata !"", i32 0, i32 0, i64 0, i64 0, i64 0, i32 0, null, metadata !206, i32 0, i32 0} ; [ DW_TAG_subroutine_type ]
!206 = metadata !{metadata !64, metadata !202}
!207 = metadata !{i32 786478, i32 0, metadata !76, metadata !"to_uint", metadata !"to_uint", metadata !"_ZNK11ap_int_baseILi72ELb0ELb0EE7to_uintEv", metadata !77, i32 2488, metadata !208, i1 false, i1 false, i32 0, i32 0, null, i32 256, i1 false, null, null, i32 0, metadata !89, i32 2488} ; [ DW_TAG_subprogram ]
!208 = metadata !{i32 786453, i32 0, metadata !"", i32 0, i32 0, i64 0, i64 0, i64 0, i32 0, null, metadata !209, i32 0, i32 0} ; [ DW_TAG_subroutine_type ]
!209 = metadata !{metadata !137, metadata !202}
!210 = metadata !{i32 786478, i32 0, metadata !76, metadata !"to_long", metadata !"to_long", metadata !"_ZNK11ap_int_baseILi72ELb0ELb0EE7to_longEv", metadata !77, i32 2489, metadata !211, i1 false, i1 false, i32 0, i32 0, null, i32 256, i1 false, null, null, i32 0, metadata !89, i32 2489} ; [ DW_TAG_subprogram ]
!211 = metadata !{i32 786453, i32 0, metadata !"", i32 0, i32 0, i64 0, i64 0, i64 0, i32 0, null, metadata !212, i32 0, i32 0} ; [ DW_TAG_subroutine_type ]
!212 = metadata !{metadata !141, metadata !202}
!213 = metadata !{i32 786478, i32 0, metadata !76, metadata !"to_ulong", metadata !"to_ulong", metadata !"_ZNK11ap_int_baseILi72ELb0ELb0EE8to_ulongEv", metadata !77, i32 2490, metadata !214, i1 false, i1 false, i32 0, i32 0, null, i32 256, i1 false, null, null, i32 0, metadata !89, i32 2490} ; [ DW_TAG_subprogram ]
!214 = metadata !{i32 786453, i32 0, metadata !"", i32 0, i32 0, i64 0, i64 0, i64 0, i32 0, null, metadata !215, i32 0, i32 0} ; [ DW_TAG_subroutine_type ]
!215 = metadata !{metadata !145, metadata !202}
!216 = metadata !{i32 786478, i32 0, metadata !76, metadata !"to_int64", metadata !"to_int64", metadata !"_ZNK11ap_int_baseILi72ELb0ELb0EE8to_int64Ev", metadata !77, i32 2491, metadata !217, i1 false, i1 false, i32 0, i32 0, null, i32 256, i1 false, null, null, i32 0, metadata !89, i32 2491} ; [ DW_TAG_subprogram ]
!217 = metadata !{i32 786453, i32 0, metadata !"", i32 0, i32 0, i64 0, i64 0, i64 0, i32 0, null, metadata !218, i32 0, i32 0} ; [ DW_TAG_subroutine_type ]
!218 = metadata !{metadata !149, metadata !202}
!219 = metadata !{i32 786478, i32 0, metadata !76, metadata !"to_uint64", metadata !"to_uint64", metadata !"_ZNK11ap_int_baseILi72ELb0ELb0EE9to_uint64Ev", metadata !77, i32 2492, metadata !220, i1 false, i1 false, i32 0, i32 0, null, i32 256, i1 false, null, null, i32 0, metadata !89, i32 2492} ; [ DW_TAG_subprogram ]
!220 = metadata !{i32 786453, i32 0, metadata !"", i32 0, i32 0, i64 0, i64 0, i64 0, i32 0, null, metadata !221, i32 0, i32 0} ; [ DW_TAG_subroutine_type ]
!221 = metadata !{metadata !154, metadata !202}
!222 = metadata !{i32 786478, i32 0, metadata !76, metadata !"to_double", metadata !"to_double", metadata !"_ZNK11ap_int_baseILi72ELb0ELb0EE9to_doubleEv", metadata !77, i32 2493, metadata !223, i1 false, i1 false, i32 0, i32 0, null, i32 256, i1 false, null, null, i32 0, metadata !89, i32 2493} ; [ DW_TAG_subprogram ]
!223 = metadata !{i32 786453, i32 0, metadata !"", i32 0, i32 0, i64 0, i64 0, i64 0, i32 0, null, metadata !224, i32 0, i32 0} ; [ DW_TAG_subroutine_type ]
!224 = metadata !{metadata !163, metadata !202}
!225 = metadata !{i32 786478, i32 0, metadata !76, metadata !"length", metadata !"length", metadata !"_ZNK11ap_int_baseILi72ELb0ELb0EE6lengthEv", metadata !77, i32 2506, metadata !205, i1 false, i1 false, i32 0, i32 0, null, i32 256, i1 false, null, null, i32 0, metadata !89, i32 2506} ; [ DW_TAG_subprogram ]
!226 = metadata !{i32 786478, i32 0, metadata !76, metadata !"length", metadata !"length", metadata !"_ZNVK11ap_int_baseILi72ELb0ELb0EE6lengthEv", metadata !77, i32 2507, metadata !227, i1 false, i1 false, i32 0, i32 0, null, i32 256, i1 false, null, null, i32 0, metadata !89, i32 2507} ; [ DW_TAG_subprogram ]
!227 = metadata !{i32 786453, i32 0, metadata !"", i32 0, i32 0, i64 0, i64 0, i64 0, i32 0, null, metadata !228, i32 0, i32 0} ; [ DW_TAG_subroutine_type ]
!228 = metadata !{metadata !64, metadata !229}
!229 = metadata !{i32 786447, i32 0, metadata !"", i32 0, i32 0, i64 64, i64 64, i64 0, i32 64, metadata !230} ; [ DW_TAG_pointer_type ]
!230 = metadata !{i32 786470, null, metadata !"", null, i32 0, i64 0, i64 0, i64 0, i32 0, metadata !177} ; [ DW_TAG_const_type ]
!231 = metadata !{i32 786478, i32 0, metadata !76, metadata !"reverse", metadata !"reverse", metadata !"_ZN11ap_int_baseILi72ELb0ELb0EE7reverseEv", metadata !77, i32 2512, metadata !232, i1 false, i1 false, i32 0, i32 0, null, i32 256, i1 false, null, null, i32 0, metadata !89, i32 2512} ; [ DW_TAG_subprogram ]
!232 = metadata !{i32 786453, i32 0, metadata !"", i32 0, i32 0, i64 0, i64 0, i64 0, i32 0, null, metadata !233, i32 0, i32 0} ; [ DW_TAG_subroutine_type ]
!233 = metadata !{metadata !107, metadata !103}
!234 = metadata !{i32 786478, i32 0, metadata !76, metadata !"iszero", metadata !"iszero", metadata !"_ZNK11ap_int_baseILi72ELb0ELb0EE6iszeroEv", metadata !77, i32 2518, metadata !200, i1 false, i1 false, i32 0, i32 0, null, i32 256, i1 false, null, null, i32 0, metadata !89, i32 2518} ; [ DW_TAG_subprogram ]
!235 = metadata !{i32 786478, i32 0, metadata !76, metadata !"is_zero", metadata !"is_zero", metadata !"_ZNK11ap_int_baseILi72ELb0ELb0EE7is_zeroEv", metadata !77, i32 2523, metadata !200, i1 false, i1 false, i32 0, i32 0, null, i32 256, i1 false, null, null, i32 0, metadata !89, i32 2523} ; [ DW_TAG_subprogram ]
!236 = metadata !{i32 786478, i32 0, metadata !76, metadata !"sign", metadata !"sign", metadata !"_ZNK11ap_int_baseILi72ELb0ELb0EE4signEv", metadata !77, i32 2528, metadata !200, i1 false, i1 false, i32 0, i32 0, null, i32 256, i1 false, null, null, i32 0, metadata !89, i32 2528} ; [ DW_TAG_subprogram ]
!237 = metadata !{i32 786478, i32 0, metadata !76, metadata !"clear", metadata !"clear", metadata !"_ZN11ap_int_baseILi72ELb0ELb0EE5clearEi", metadata !77, i32 2536, metadata !132, i1 false, i1 false, i32 0, i32 0, null, i32 256, i1 false, null, null, i32 0, metadata !89, i32 2536} ; [ DW_TAG_subprogram ]
!238 = metadata !{i32 786478, i32 0, metadata !76, metadata !"invert", metadata !"invert", metadata !"_ZN11ap_int_baseILi72ELb0ELb0EE6invertEi", metadata !77, i32 2542, metadata !132, i1 false, i1 false, i32 0, i32 0, null, i32 256, i1 false, null, null, i32 0, metadata !89, i32 2542} ; [ DW_TAG_subprogram ]
!239 = metadata !{i32 786478, i32 0, metadata !76, metadata !"test", metadata !"test", metadata !"_ZNK11ap_int_baseILi72ELb0ELb0EE4testEi", metadata !77, i32 2550, metadata !240, i1 false, i1 false, i32 0, i32 0, null, i32 256, i1 false, null, null, i32 0, metadata !89, i32 2550} ; [ DW_TAG_subprogram ]
!240 = metadata !{i32 786453, i32 0, metadata !"", i32 0, i32 0, i64 0, i64 0, i64 0, i32 0, null, metadata !241, i32 0, i32 0} ; [ DW_TAG_subroutine_type ]
!241 = metadata !{metadata !99, metadata !202, metadata !64}
!242 = metadata !{i32 786478, i32 0, metadata !76, metadata !"set", metadata !"set", metadata !"_ZN11ap_int_baseILi72ELb0ELb0EE3setEi", metadata !77, i32 2556, metadata !132, i1 false, i1 false, i32 0, i32 0, null, i32 256, i1 false, null, null, i32 0, metadata !89, i32 2556} ; [ DW_TAG_subprogram ]
!243 = metadata !{i32 786478, i32 0, metadata !76, metadata !"set", metadata !"set", metadata !"_ZN11ap_int_baseILi72ELb0ELb0EE3setEib", metadata !77, i32 2562, metadata !244, i1 false, i1 false, i32 0, i32 0, null, i32 256, i1 false, null, null, i32 0, metadata !89, i32 2562} ; [ DW_TAG_subprogram ]
!244 = metadata !{i32 786453, i32 0, metadata !"", i32 0, i32 0, i64 0, i64 0, i64 0, i32 0, null, metadata !245, i32 0, i32 0} ; [ DW_TAG_subroutine_type ]
!245 = metadata !{null, metadata !103, metadata !64, metadata !99}
!246 = metadata !{i32 786478, i32 0, metadata !76, metadata !"lrotate", metadata !"lrotate", metadata !"_ZN11ap_int_baseILi72ELb0ELb0EE7lrotateEi", metadata !77, i32 2569, metadata !132, i1 false, i1 false, i32 0, i32 0, null, i32 256, i1 false, null, null, i32 0, metadata !89, i32 2569} ; [ DW_TAG_subprogram ]
!247 = metadata !{i32 786478, i32 0, metadata !76, metadata !"rrotate", metadata !"rrotate", metadata !"_ZN11ap_int_baseILi72ELb0ELb0EE7rrotateEi", metadata !77, i32 2578, metadata !132, i1 false, i1 false, i32 0, i32 0, null, i32 256, i1 false, null, null, i32 0, metadata !89, i32 2578} ; [ DW_TAG_subprogram ]
!248 = metadata !{i32 786478, i32 0, metadata !76, metadata !"set_bit", metadata !"set_bit", metadata !"_ZN11ap_int_baseILi72ELb0ELb0EE7set_bitEib", metadata !77, i32 2586, metadata !244, i1 false, i1 false, i32 0, i32 0, null, i32 256, i1 false, null, null, i32 0, metadata !89, i32 2586} ; [ DW_TAG_subprogram ]
!249 = metadata !{i32 786478, i32 0, metadata !76, metadata !"get_bit", metadata !"get_bit", metadata !"_ZNK11ap_int_baseILi72ELb0ELb0EE7get_bitEi", metadata !77, i32 2591, metadata !240, i1 false, i1 false, i32 0, i32 0, null, i32 256, i1 false, null, null, i32 0, metadata !89, i32 2591} ; [ DW_TAG_subprogram ]
!250 = metadata !{i32 786478, i32 0, metadata !76, metadata !"b_not", metadata !"b_not", metadata !"_ZN11ap_int_baseILi72ELb0ELb0EE5b_notEv", metadata !77, i32 2596, metadata !101, i1 false, i1 false, i32 0, i32 0, null, i32 256, i1 false, null, null, i32 0, metadata !89, i32 2596} ; [ DW_TAG_subprogram ]
!251 = metadata !{i32 786478, i32 0, metadata !76, metadata !"countLeadingZeros", metadata !"countLeadingZeros", metadata !"_ZN11ap_int_baseILi72ELb0ELb0EE17countLeadingZerosEv", metadata !77, i32 2603, metadata !252, i1 false, i1 false, i32 0, i32 0, null, i32 256, i1 false, null, null, i32 0, metadata !89, i32 2603} ; [ DW_TAG_subprogram ]
!252 = metadata !{i32 786453, i32 0, metadata !"", i32 0, i32 0, i64 0, i64 0, i64 0, i32 0, null, metadata !253, i32 0, i32 0} ; [ DW_TAG_subroutine_type ]
!253 = metadata !{metadata !64, metadata !103}
!254 = metadata !{i32 786478, i32 0, metadata !76, metadata !"operator++", metadata !"operator++", metadata !"_ZN11ap_int_baseILi72ELb0ELb0EEppEv", metadata !77, i32 2660, metadata !232, i1 false, i1 false, i32 0, i32 0, null, i32 256, i1 false, null, null, i32 0, metadata !89, i32 2660} ; [ DW_TAG_subprogram ]
!255 = metadata !{i32 786478, i32 0, metadata !76, metadata !"operator--", metadata !"operator--", metadata !"_ZN11ap_int_baseILi72ELb0ELb0EEmmEv", metadata !77, i32 2664, metadata !232, i1 false, i1 false, i32 0, i32 0, null, i32 256, i1 false, null, null, i32 0, metadata !89, i32 2664} ; [ DW_TAG_subprogram ]
!256 = metadata !{i32 786478, i32 0, metadata !76, metadata !"operator++", metadata !"operator++", metadata !"_ZN11ap_int_baseILi72ELb0ELb0EEppEi", metadata !77, i32 2672, metadata !257, i1 false, i1 false, i32 0, i32 0, null, i32 256, i1 false, null, null, i32 0, metadata !89, i32 2672} ; [ DW_TAG_subprogram ]
!257 = metadata !{i32 786453, i32 0, metadata !"", i32 0, i32 0, i64 0, i64 0, i64 0, i32 0, null, metadata !258, i32 0, i32 0} ; [ DW_TAG_subroutine_type ]
!258 = metadata !{metadata !203, metadata !103, metadata !64}
!259 = metadata !{i32 786478, i32 0, metadata !76, metadata !"operator--", metadata !"operator--", metadata !"_ZN11ap_int_baseILi72ELb0ELb0EEmmEi", metadata !77, i32 2677, metadata !257, i1 false, i1 false, i32 0, i32 0, null, i32 256, i1 false, null, null, i32 0, metadata !89, i32 2677} ; [ DW_TAG_subprogram ]
!260 = metadata !{i32 786478, i32 0, metadata !76, metadata !"operator+", metadata !"operator+", metadata !"_ZNK11ap_int_baseILi72ELb0ELb0EEpsEv", metadata !77, i32 2686, metadata !261, i1 false, i1 false, i32 0, i32 0, null, i32 256, i1 false, null, null, i32 0, metadata !89, i32 2686} ; [ DW_TAG_subprogram ]
!261 = metadata !{i32 786453, i32 0, metadata !"", i32 0, i32 0, i64 0, i64 0, i64 0, i32 0, null, metadata !262, i32 0, i32 0} ; [ DW_TAG_subroutine_type ]
!262 = metadata !{metadata !76, metadata !202}
!263 = metadata !{i32 786478, i32 0, metadata !76, metadata !"operator-", metadata !"operator-", metadata !"_ZNK11ap_int_baseILi72ELb0ELb0EEngEv", metadata !77, i32 2690, metadata !264, i1 false, i1 false, i32 0, i32 0, null, i32 256, i1 false, null, null, i32 0, metadata !89, i32 2690} ; [ DW_TAG_subprogram ]
!264 = metadata !{i32 786453, i32 0, metadata !"", i32 0, i32 0, i64 0, i64 0, i64 0, i32 0, null, metadata !265, i32 0, i32 0} ; [ DW_TAG_subroutine_type ]
!265 = metadata !{metadata !266, metadata !202}
!266 = metadata !{i32 786454, metadata !267, metadata !"minus", metadata !77, i32 2259, i64 0, i64 0, i64 0, i32 0, metadata !271} ; [ DW_TAG_typedef ]
!267 = metadata !{i32 786434, metadata !76, metadata !"RType<1, false>", metadata !77, i32 2241, i64 8, i64 8, i32 0, i32 0, null, metadata !268, i32 0, null, metadata !269} ; [ DW_TAG_class_type ]
!268 = metadata !{i32 0}
!269 = metadata !{metadata !270, metadata !110}
!270 = metadata !{i32 786480, null, metadata !"_AP_W2", metadata !64, i64 1, null, i32 0, i32 0} ; [ DW_TAG_template_value_parameter ]
!271 = metadata !{i32 786434, null, metadata !"ap_int_base<73, true, false>", metadata !77, i32 605, i32 0, i32 0, i32 0, i32 4, null, null, i32 0} ; [ DW_TAG_class_type ]
!272 = metadata !{i32 786478, i32 0, metadata !76, metadata !"operator!", metadata !"operator!", metadata !"_ZNK11ap_int_baseILi72ELb0ELb0EEntEv", metadata !77, i32 2697, metadata !200, i1 false, i1 false, i32 0, i32 0, null, i32 256, i1 false, null, null, i32 0, metadata !89, i32 2697} ; [ DW_TAG_subprogram ]
!273 = metadata !{i32 786478, i32 0, metadata !76, metadata !"operator~", metadata !"operator~", metadata !"_ZNK11ap_int_baseILi72ELb0ELb0EEcoEv", metadata !77, i32 2704, metadata !274, i1 false, i1 false, i32 0, i32 0, null, i32 256, i1 false, null, null, i32 0, metadata !89, i32 2704} ; [ DW_TAG_subprogram ]
!274 = metadata !{i32 786453, i32 0, metadata !"", i32 0, i32 0, i64 0, i64 0, i64 0, i32 0, null, metadata !275, i32 0, i32 0} ; [ DW_TAG_subroutine_type ]
!275 = metadata !{metadata !271, metadata !202}
!276 = metadata !{i32 786478, i32 0, metadata !76, metadata !"range", metadata !"range", metadata !"_ZN11ap_int_baseILi72ELb0ELb0EE5rangeEii", metadata !77, i32 2831, metadata !277, i1 false, i1 false, i32 0, i32 0, null, i32 256, i1 false, null, null, i32 0, metadata !89, i32 2831} ; [ DW_TAG_subprogram ]
!277 = metadata !{i32 786453, i32 0, metadata !"", i32 0, i32 0, i64 0, i64 0, i64 0, i32 0, null, metadata !278, i32 0, i32 0} ; [ DW_TAG_subroutine_type ]
!278 = metadata !{metadata !279, metadata !103, metadata !64, metadata !64}
!279 = metadata !{i32 786434, null, metadata !"ap_range_ref<72, false>", metadata !77, i32 878, i32 0, i32 0, i32 0, i32 4, null, null, i32 0} ; [ DW_TAG_class_type ]
!280 = metadata !{i32 786478, i32 0, metadata !76, metadata !"operator()", metadata !"operator()", metadata !"_ZN11ap_int_baseILi72ELb0ELb0EEclEii", metadata !77, i32 2837, metadata !277, i1 false, i1 false, i32 0, i32 0, null, i32 256, i1 false, null, null, i32 0, metadata !89, i32 2837} ; [ DW_TAG_subprogram ]
!281 = metadata !{i32 786478, i32 0, metadata !76, metadata !"range", metadata !"range", metadata !"_ZNK11ap_int_baseILi72ELb0ELb0EE5rangeEii", metadata !77, i32 2843, metadata !282, i1 false, i1 false, i32 0, i32 0, null, i32 256, i1 false, null, null, i32 0, metadata !89, i32 2843} ; [ DW_TAG_subprogram ]
!282 = metadata !{i32 786453, i32 0, metadata !"", i32 0, i32 0, i64 0, i64 0, i64 0, i32 0, null, metadata !283, i32 0, i32 0} ; [ DW_TAG_subroutine_type ]
!283 = metadata !{metadata !279, metadata !202, metadata !64, metadata !64}
!284 = metadata !{i32 786478, i32 0, metadata !76, metadata !"operator()", metadata !"operator()", metadata !"_ZNK11ap_int_baseILi72ELb0ELb0EEclEii", metadata !77, i32 2849, metadata !282, i1 false, i1 false, i32 0, i32 0, null, i32 256, i1 false, null, null, i32 0, metadata !89, i32 2849} ; [ DW_TAG_subprogram ]
!285 = metadata !{i32 786478, i32 0, metadata !76, metadata !"operator[]", metadata !"operator[]", metadata !"_ZN11ap_int_baseILi72ELb0ELb0EEixEi", metadata !77, i32 2869, metadata !286, i1 false, i1 false, i32 0, i32 0, null, i32 256, i1 false, null, null, i32 0, metadata !89, i32 2869} ; [ DW_TAG_subprogram ]
!286 = metadata !{i32 786453, i32 0, metadata !"", i32 0, i32 0, i64 0, i64 0, i64 0, i32 0, null, metadata !287, i32 0, i32 0} ; [ DW_TAG_subroutine_type ]
!287 = metadata !{metadata !288, metadata !103, metadata !64}
!288 = metadata !{i32 786434, null, metadata !"ap_bit_ref<72, false>", metadata !77, i32 1124, i32 0, i32 0, i32 0, i32 4, null, null, i32 0} ; [ DW_TAG_class_type ]
!289 = metadata !{i32 786478, i32 0, metadata !76, metadata !"operator[]", metadata !"operator[]", metadata !"_ZNK11ap_int_baseILi72ELb0ELb0EEixEi", metadata !77, i32 2883, metadata !240, i1 false, i1 false, i32 0, i32 0, null, i32 256, i1 false, null, null, i32 0, metadata !89, i32 2883} ; [ DW_TAG_subprogram ]
!290 = metadata !{i32 786478, i32 0, metadata !76, metadata !"bit", metadata !"bit", metadata !"_ZN11ap_int_baseILi72ELb0ELb0EE3bitEi", metadata !77, i32 2897, metadata !286, i1 false, i1 false, i32 0, i32 0, null, i32 256, i1 false, null, null, i32 0, metadata !89, i32 2897} ; [ DW_TAG_subprogram ]
!291 = metadata !{i32 786478, i32 0, metadata !76, metadata !"bit", metadata !"bit", metadata !"_ZNK11ap_int_baseILi72ELb0ELb0EE3bitEi", metadata !77, i32 2911, metadata !240, i1 false, i1 false, i32 0, i32 0, null, i32 256, i1 false, null, null, i32 0, metadata !89, i32 2911} ; [ DW_TAG_subprogram ]
!292 = metadata !{i32 786478, i32 0, metadata !76, metadata !"and_reduce", metadata !"and_reduce", metadata !"_ZN11ap_int_baseILi72ELb0ELb0EE10and_reduceEv", metadata !77, i32 3091, metadata !293, i1 false, i1 false, i32 0, i32 0, null, i32 256, i1 false, null, null, i32 0, metadata !89, i32 3091} ; [ DW_TAG_subprogram ]
!293 = metadata !{i32 786453, i32 0, metadata !"", i32 0, i32 0, i64 0, i64 0, i64 0, i32 0, null, metadata !294, i32 0, i32 0} ; [ DW_TAG_subroutine_type ]
!294 = metadata !{metadata !99, metadata !103}
!295 = metadata !{i32 786478, i32 0, metadata !76, metadata !"nand_reduce", metadata !"nand_reduce", metadata !"_ZN11ap_int_baseILi72ELb0ELb0EE11nand_reduceEv", metadata !77, i32 3094, metadata !293, i1 false, i1 false, i32 0, i32 0, null, i32 256, i1 false, null, null, i32 0, metadata !89, i32 3094} ; [ DW_TAG_subprogram ]
!296 = metadata !{i32 786478, i32 0, metadata !76, metadata !"or_reduce", metadata !"or_reduce", metadata !"_ZN11ap_int_baseILi72ELb0ELb0EE9or_reduceEv", metadata !77, i32 3097, metadata !293, i1 false, i1 false, i32 0, i32 0, null, i32 256, i1 false, null, null, i32 0, metadata !89, i32 3097} ; [ DW_TAG_subprogram ]
!297 = metadata !{i32 786478, i32 0, metadata !76, metadata !"nor_reduce", metadata !"nor_reduce", metadata !"_ZN11ap_int_baseILi72ELb0ELb0EE10nor_reduceEv", metadata !77, i32 3100, metadata !293, i1 false, i1 false, i32 0, i32 0, null, i32 256, i1 false, null, null, i32 0, metadata !89, i32 3100} ; [ DW_TAG_subprogram ]
!298 = metadata !{i32 786478, i32 0, metadata !76, metadata !"xor_reduce", metadata !"xor_reduce", metadata !"_ZN11ap_int_baseILi72ELb0ELb0EE10xor_reduceEv", metadata !77, i32 3103, metadata !293, i1 false, i1 false, i32 0, i32 0, null, i32 256, i1 false, null, null, i32 0, metadata !89, i32 3103} ; [ DW_TAG_subprogram ]
!299 = metadata !{i32 786478, i32 0, metadata !76, metadata !"xnor_reduce", metadata !"xnor_reduce", metadata !"_ZN11ap_int_baseILi72ELb0ELb0EE11xnor_reduceEv", metadata !77, i32 3106, metadata !293, i1 false, i1 false, i32 0, i32 0, null, i32 256, i1 false, null, null, i32 0, metadata !89, i32 3106} ; [ DW_TAG_subprogram ]
!300 = metadata !{i32 786478, i32 0, metadata !76, metadata !"and_reduce", metadata !"and_reduce", metadata !"_ZNK11ap_int_baseILi72ELb0ELb0EE10and_reduceEv", metadata !77, i32 3110, metadata !200, i1 false, i1 false, i32 0, i32 0, null, i32 256, i1 false, null, null, i32 0, metadata !89, i32 3110} ; [ DW_TAG_subprogram ]
!301 = metadata !{i32 786478, i32 0, metadata !76, metadata !"nand_reduce", metadata !"nand_reduce", metadata !"_ZNK11ap_int_baseILi72ELb0ELb0EE11nand_reduceEv", metadata !77, i32 3113, metadata !200, i1 false, i1 false, i32 0, i32 0, null, i32 256, i1 false, null, null, i32 0, metadata !89, i32 3113} ; [ DW_TAG_subprogram ]
!302 = metadata !{i32 786478, i32 0, metadata !76, metadata !"or_reduce", metadata !"or_reduce", metadata !"_ZNK11ap_int_baseILi72ELb0ELb0EE9or_reduceEv", metadata !77, i32 3116, metadata !200, i1 false, i1 false, i32 0, i32 0, null, i32 256, i1 false, null, null, i32 0, metadata !89, i32 3116} ; [ DW_TAG_subprogram ]
!303 = metadata !{i32 786478, i32 0, metadata !76, metadata !"nor_reduce", metadata !"nor_reduce", metadata !"_ZNK11ap_int_baseILi72ELb0ELb0EE10nor_reduceEv", metadata !77, i32 3119, metadata !200, i1 false, i1 false, i32 0, i32 0, null, i32 256, i1 false, null, null, i32 0, metadata !89, i32 3119} ; [ DW_TAG_subprogram ]
!304 = metadata !{i32 786478, i32 0, metadata !76, metadata !"xor_reduce", metadata !"xor_reduce", metadata !"_ZNK11ap_int_baseILi72ELb0ELb0EE10xor_reduceEv", metadata !77, i32 3122, metadata !200, i1 false, i1 false, i32 0, i32 0, null, i32 256, i1 false, null, null, i32 0, metadata !89, i32 3122} ; [ DW_TAG_subprogram ]
!305 = metadata !{i32 786478, i32 0, metadata !76, metadata !"xnor_reduce", metadata !"xnor_reduce", metadata !"_ZNK11ap_int_baseILi72ELb0ELb0EE11xnor_reduceEv", metadata !77, i32 3125, metadata !200, i1 false, i1 false, i32 0, i32 0, null, i32 256, i1 false, null, null, i32 0, metadata !89, i32 3125} ; [ DW_TAG_subprogram ]
!306 = metadata !{i32 786478, i32 0, metadata !76, metadata !"to_string", metadata !"to_string", metadata !"_ZNK11ap_int_baseILi72ELb0ELb0EE9to_stringEPci8BaseModeb", metadata !77, i32 3132, metadata !307, i1 false, i1 false, i32 0, i32 0, null, i32 256, i1 false, null, null, i32 0, metadata !89, i32 3132} ; [ DW_TAG_subprogram ]
!307 = metadata !{i32 786453, i32 0, metadata !"", i32 0, i32 0, i64 0, i64 0, i64 0, i32 0, null, metadata !308, i32 0, i32 0} ; [ DW_TAG_subroutine_type ]
!308 = metadata !{null, metadata !202, metadata !309, metadata !64, metadata !310, metadata !99}
!309 = metadata !{i32 786447, null, metadata !"", null, i32 0, i64 64, i64 64, i64 0, i32 0, metadata !169} ; [ DW_TAG_pointer_type ]
!310 = metadata !{i32 786436, null, metadata !"BaseMode", metadata !77, i32 557, i64 5, i64 8, i32 0, i32 0, null, metadata !311, i32 0, i32 0} ; [ DW_TAG_enumeration_type ]
!311 = metadata !{metadata !312, metadata !313, metadata !314, metadata !315}
!312 = metadata !{i32 786472, metadata !"SC_BIN", i64 2} ; [ DW_TAG_enumerator ]
!313 = metadata !{i32 786472, metadata !"SC_OCT", i64 8} ; [ DW_TAG_enumerator ]
!314 = metadata !{i32 786472, metadata !"SC_DEC", i64 10} ; [ DW_TAG_enumerator ]
!315 = metadata !{i32 786472, metadata !"SC_HEX", i64 16} ; [ DW_TAG_enumerator ]
!316 = metadata !{i32 786478, i32 0, metadata !76, metadata !"to_string", metadata !"to_string", metadata !"_ZNK11ap_int_baseILi72ELb0ELb0EE9to_stringE8BaseModeb", metadata !77, i32 3159, metadata !317, i1 false, i1 false, i32 0, i32 0, null, i32 256, i1 false, null, null, i32 0, metadata !89, i32 3159} ; [ DW_TAG_subprogram ]
!317 = metadata !{i32 786453, i32 0, metadata !"", i32 0, i32 0, i64 0, i64 0, i64 0, i32 0, null, metadata !318, i32 0, i32 0} ; [ DW_TAG_subroutine_type ]
!318 = metadata !{metadata !309, metadata !202, metadata !310, metadata !99}
!319 = metadata !{i32 786478, i32 0, metadata !76, metadata !"to_string", metadata !"to_string", metadata !"_ZNK11ap_int_baseILi72ELb0ELb0EE9to_stringEab", metadata !77, i32 3163, metadata !320, i1 false, i1 false, i32 0, i32 0, null, i32 256, i1 false, null, null, i32 0, metadata !89, i32 3163} ; [ DW_TAG_subprogram ]
!320 = metadata !{i32 786453, i32 0, metadata !"", i32 0, i32 0, i64 0, i64 0, i64 0, i32 0, null, metadata !321, i32 0, i32 0} ; [ DW_TAG_subroutine_type ]
!321 = metadata !{metadata !309, metadata !202, metadata !118, metadata !99}
!322 = metadata !{i32 786478, i32 0, metadata !76, metadata !"ap_int_base", metadata !"ap_int_base", metadata !"", metadata !77, i32 2234, metadata !323, i1 false, i1 false, i32 0, i32 0, null, i32 320, i1 false, null, null, i32 0, metadata !89, i32 2234} ; [ DW_TAG_subprogram ]
!323 = metadata !{i32 786453, i32 0, metadata !"", i32 0, i32 0, i64 0, i64 0, i64 0, i32 0, null, metadata !324, i32 0, i32 0} ; [ DW_TAG_subroutine_type ]
!324 = metadata !{null, metadata !103, metadata !325}
!325 = metadata !{i32 786448, null, null, null, i32 0, i64 0, i64 0, i64 0, i32 0, metadata !203} ; [ DW_TAG_reference_type ]
!326 = metadata !{metadata !327, metadata !98}
!327 = metadata !{i32 786480, null, metadata !"_AP_W", metadata !64, i64 72, null, i32 0, i32 0} ; [ DW_TAG_template_value_parameter ]
!328 = metadata !{i32 786478, i32 0, metadata !72, metadata !"ap_uint", metadata !"ap_uint", metadata !"", metadata !73, i32 137, metadata !329, i1 false, i1 false, i32 0, i32 0, null, i32 256, i1 false, null, null, i32 0, metadata !89, i32 137} ; [ DW_TAG_subprogram ]
!329 = metadata !{i32 786453, i32 0, metadata !"", i32 0, i32 0, i64 0, i64 0, i64 0, i32 0, null, metadata !330, i32 0, i32 0} ; [ DW_TAG_subroutine_type ]
!330 = metadata !{null, metadata !331}
!331 = metadata !{i32 786447, i32 0, metadata !"", i32 0, i32 0, i64 64, i64 64, i64 0, i32 64, metadata !72} ; [ DW_TAG_pointer_type ]
!332 = metadata !{i32 786478, i32 0, metadata !72, metadata !"ap_uint<72>", metadata !"ap_uint<72>", metadata !"", metadata !73, i32 139, metadata !333, i1 false, i1 false, i32 0, i32 0, null, i32 256, i1 false, null, metadata !336, i32 0, metadata !89, i32 139} ; [ DW_TAG_subprogram ]
!333 = metadata !{i32 786453, i32 0, metadata !"", i32 0, i32 0, i64 0, i64 0, i64 0, i32 0, null, metadata !334, i32 0, i32 0} ; [ DW_TAG_subroutine_type ]
!334 = metadata !{null, metadata !331, metadata !335}
!335 = metadata !{i32 786448, null, null, null, i32 0, i64 0, i64 0, i64 0, i32 0, metadata !72} ; [ DW_TAG_reference_type ]
!336 = metadata !{metadata !109}
!337 = metadata !{i32 786478, i32 0, metadata !72, metadata !"ap_uint<72>", metadata !"ap_uint<72>", metadata !"", metadata !73, i32 145, metadata !333, i1 false, i1 false, i32 0, i32 0, null, i32 256, i1 false, null, metadata !336, i32 0, metadata !89, i32 145} ; [ DW_TAG_subprogram ]
!338 = metadata !{i32 786478, i32 0, metadata !72, metadata !"ap_uint<8, ap_int_base<8, false, true>, 64, ap_concat_ref<32, ap_int_base<32, false, true>, 32, ap_int_base<32, false, true> > >", metadata !"ap_uint<8, ap_int_base<8, false, true>, 64, ap_concat_ref<32, ap_int_base<32, false, true>, 32, ap_int_base<32, false, true> > >", metadata !"", metadata !73, i32 157, metadata !339, i1 false, i1 false, i32 0, i32 0, null, i32 256, i1 false, null, metadata !1838, i32 0, metadata !89, i32 157} ; [ DW_TAG_subprogram ]
!339 = metadata !{i32 786453, i32 0, metadata !"", i32 0, i32 0, i64 0, i64 0, i64 0, i32 0, null, metadata !340, i32 0, i32 0} ; [ DW_TAG_subroutine_type ]
!340 = metadata !{null, metadata !331, metadata !341}
!341 = metadata !{i32 786448, null, null, null, i32 0, i64 0, i64 0, i64 0, i32 0, metadata !342} ; [ DW_TAG_reference_type ]
!342 = metadata !{i32 786470, null, metadata !"", null, i32 0, i64 0, i64 0, i64 0, i32 0, metadata !343} ; [ DW_TAG_const_type ]
!343 = metadata !{i32 786434, null, metadata !"ap_concat_ref<8, ap_int_base<8, false, true>, 64, ap_concat_ref<32, ap_int_base<32, false, true>, 32, ap_int_base<32, false, true> > >", metadata !77, i32 641, i64 128, i64 64, i32 0, i32 0, null, metadata !344, i32 0, null, metadata !1833} ; [ DW_TAG_class_type ]
!344 = metadata !{metadata !345, metadata !1804, metadata !1805, metadata !1810, metadata !1813, metadata !1816, metadata !1819, metadata !1823, metadata !1826, metadata !1827, metadata !1830}
!345 = metadata !{i32 786445, metadata !343, metadata !"mbv1", metadata !77, i32 644, i64 64, i64 64, i64 0, i32 0, metadata !346} ; [ DW_TAG_member ]
!346 = metadata !{i32 786448, null, null, null, i32 0, i64 0, i64 0, i64 0, i32 0, metadata !347} ; [ DW_TAG_reference_type ]
!347 = metadata !{i32 786434, null, metadata !"ap_int_base<8, false, true>", metadata !77, i32 1302, i64 8, i64 8, i32 0, i32 0, null, metadata !348, i32 0, null, metadata !1802} ; [ DW_TAG_class_type ]
!348 = metadata !{metadata !349, metadata !360, metadata !364, metadata !369, metadata !370, metadata !373, metadata !376, metadata !379, metadata !382, metadata !385, metadata !388, metadata !391, metadata !394, metadata !397, metadata !400, metadata !403, metadata !406, metadata !409, metadata !412, metadata !415, metadata !420, metadata !423, metadata !424, metadata !425, metadata !428, metadata !429, metadata !432, metadata !435, metadata !438, metadata !441, metadata !450, metadata !453, metadata !456, metadata !459, metadata !462, metadata !465, metadata !468, metadata !471, metadata !474, metadata !475, metadata !480, metadata !483, metadata !484, metadata !485, metadata !486, metadata !487, metadata !488, metadata !491, metadata !492, metadata !495, metadata !496, metadata !497, metadata !498, metadata !499, metadata !500, metadata !503, metadata !504, metadata !505, metadata !508, metadata !509, metadata !512, metadata !513, metadata !755, metadata !759, metadata !760, metadata !763, metadata !764, metadata !768, metadata !769, metadata !770, metadata !771, metadata !1776, metadata !1779, metadata !1782, metadata !1783, metadata !1784, metadata !1785, metadata !1786, metadata !1787, metadata !1788, metadata !1789, metadata !1790, metadata !1791, metadata !1792, metadata !1793, metadata !1796, metadata !1799}
!349 = metadata !{i32 786460, metadata !347, null, metadata !77, i32 0, i64 0, i64 0, i64 0, i32 0, metadata !350} ; [ DW_TAG_inheritance ]
!350 = metadata !{i32 786434, null, metadata !"ssdm_int<8 + 1024 * 0, false>", metadata !81, i32 10, i64 8, i64 8, i32 0, i32 0, null, metadata !351, i32 0, null, metadata !358} ; [ DW_TAG_class_type ]
!351 = metadata !{metadata !352, metadata !354}
!352 = metadata !{i32 786445, metadata !350, metadata !"V", metadata !81, i32 10, i64 8, i64 8, i64 0, i32 0, metadata !353} ; [ DW_TAG_member ]
!353 = metadata !{i32 786468, null, metadata !"uint8", null, i32 0, i64 8, i64 8, i64 0, i32 0, i32 7} ; [ DW_TAG_base_type ]
!354 = metadata !{i32 786478, i32 0, metadata !350, metadata !"ssdm_int", metadata !"ssdm_int", metadata !"", metadata !81, i32 10, metadata !355, i1 false, i1 false, i32 0, i32 0, null, i32 256, i1 false, null, null, i32 0, metadata !89, i32 10} ; [ DW_TAG_subprogram ]
!355 = metadata !{i32 786453, i32 0, metadata !"", i32 0, i32 0, i64 0, i64 0, i64 0, i32 0, null, metadata !356, i32 0, i32 0} ; [ DW_TAG_subroutine_type ]
!356 = metadata !{null, metadata !357}
!357 = metadata !{i32 786447, i32 0, metadata !"", i32 0, i32 0, i64 64, i64 64, i64 0, i32 64, metadata !350} ; [ DW_TAG_pointer_type ]
!358 = metadata !{metadata !359, metadata !98}
!359 = metadata !{i32 786480, null, metadata !"_AP_N", metadata !64, i64 8, null, i32 0, i32 0} ; [ DW_TAG_template_value_parameter ]
!360 = metadata !{i32 786478, i32 0, metadata !347, metadata !"ap_int_base", metadata !"ap_int_base", metadata !"", metadata !77, i32 1340, metadata !361, i1 false, i1 false, i32 0, i32 0, null, i32 256, i1 false, null, null, i32 0, metadata !89, i32 1340} ; [ DW_TAG_subprogram ]
!361 = metadata !{i32 786453, i32 0, metadata !"", i32 0, i32 0, i64 0, i64 0, i64 0, i32 0, null, metadata !362, i32 0, i32 0} ; [ DW_TAG_subroutine_type ]
!362 = metadata !{null, metadata !363}
!363 = metadata !{i32 786447, i32 0, metadata !"", i32 0, i32 0, i64 64, i64 64, i64 0, i32 64, metadata !347} ; [ DW_TAG_pointer_type ]
!364 = metadata !{i32 786478, i32 0, metadata !347, metadata !"ap_int_base<8, false>", metadata !"ap_int_base<8, false>", metadata !"", metadata !77, i32 1352, metadata !365, i1 false, i1 false, i32 0, i32 0, null, i32 256, i1 false, null, metadata !367, i32 0, metadata !89, i32 1352} ; [ DW_TAG_subprogram ]
!365 = metadata !{i32 786453, i32 0, metadata !"", i32 0, i32 0, i64 0, i64 0, i64 0, i32 0, null, metadata !366, i32 0, i32 0} ; [ DW_TAG_subroutine_type ]
!366 = metadata !{null, metadata !363, metadata !346}
!367 = metadata !{metadata !368, metadata !110}
!368 = metadata !{i32 786480, null, metadata !"_AP_W2", metadata !64, i64 8, null, i32 0, i32 0} ; [ DW_TAG_template_value_parameter ]
!369 = metadata !{i32 786478, i32 0, metadata !347, metadata !"ap_int_base<8, false>", metadata !"ap_int_base<8, false>", metadata !"", metadata !77, i32 1355, metadata !365, i1 false, i1 false, i32 0, i32 0, null, i32 256, i1 false, null, metadata !367, i32 0, metadata !89, i32 1355} ; [ DW_TAG_subprogram ]
!370 = metadata !{i32 786478, i32 0, metadata !347, metadata !"ap_int_base", metadata !"ap_int_base", metadata !"", metadata !77, i32 1362, metadata !371, i1 false, i1 false, i32 0, i32 0, null, i32 384, i1 false, null, null, i32 0, metadata !89, i32 1362} ; [ DW_TAG_subprogram ]
!371 = metadata !{i32 786453, i32 0, metadata !"", i32 0, i32 0, i64 0, i64 0, i64 0, i32 0, null, metadata !372, i32 0, i32 0} ; [ DW_TAG_subroutine_type ]
!372 = metadata !{null, metadata !363, metadata !99}
!373 = metadata !{i32 786478, i32 0, metadata !347, metadata !"ap_int_base", metadata !"ap_int_base", metadata !"", metadata !77, i32 1363, metadata !374, i1 false, i1 false, i32 0, i32 0, null, i32 384, i1 false, null, null, i32 0, metadata !89, i32 1363} ; [ DW_TAG_subprogram ]
!374 = metadata !{i32 786453, i32 0, metadata !"", i32 0, i32 0, i64 0, i64 0, i64 0, i32 0, null, metadata !375, i32 0, i32 0} ; [ DW_TAG_subroutine_type ]
!375 = metadata !{null, metadata !363, metadata !118}
!376 = metadata !{i32 786478, i32 0, metadata !347, metadata !"ap_int_base", metadata !"ap_int_base", metadata !"", metadata !77, i32 1364, metadata !377, i1 false, i1 false, i32 0, i32 0, null, i32 384, i1 false, null, null, i32 0, metadata !89, i32 1364} ; [ DW_TAG_subprogram ]
!377 = metadata !{i32 786453, i32 0, metadata !"", i32 0, i32 0, i64 0, i64 0, i64 0, i32 0, null, metadata !378, i32 0, i32 0} ; [ DW_TAG_subroutine_type ]
!378 = metadata !{null, metadata !363, metadata !122}
!379 = metadata !{i32 786478, i32 0, metadata !347, metadata !"ap_int_base", metadata !"ap_int_base", metadata !"", metadata !77, i32 1365, metadata !380, i1 false, i1 false, i32 0, i32 0, null, i32 384, i1 false, null, null, i32 0, metadata !89, i32 1365} ; [ DW_TAG_subprogram ]
!380 = metadata !{i32 786453, i32 0, metadata !"", i32 0, i32 0, i64 0, i64 0, i64 0, i32 0, null, metadata !381, i32 0, i32 0} ; [ DW_TAG_subroutine_type ]
!381 = metadata !{null, metadata !363, metadata !126}
!382 = metadata !{i32 786478, i32 0, metadata !347, metadata !"ap_int_base", metadata !"ap_int_base", metadata !"", metadata !77, i32 1366, metadata !383, i1 false, i1 false, i32 0, i32 0, null, i32 384, i1 false, null, null, i32 0, metadata !89, i32 1366} ; [ DW_TAG_subprogram ]
!383 = metadata !{i32 786453, i32 0, metadata !"", i32 0, i32 0, i64 0, i64 0, i64 0, i32 0, null, metadata !384, i32 0, i32 0} ; [ DW_TAG_subroutine_type ]
!384 = metadata !{null, metadata !363, metadata !130}
!385 = metadata !{i32 786478, i32 0, metadata !347, metadata !"ap_int_base", metadata !"ap_int_base", metadata !"", metadata !77, i32 1367, metadata !386, i1 false, i1 false, i32 0, i32 0, null, i32 384, i1 false, null, null, i32 0, metadata !89, i32 1367} ; [ DW_TAG_subprogram ]
!386 = metadata !{i32 786453, i32 0, metadata !"", i32 0, i32 0, i64 0, i64 0, i64 0, i32 0, null, metadata !387, i32 0, i32 0} ; [ DW_TAG_subroutine_type ]
!387 = metadata !{null, metadata !363, metadata !64}
!388 = metadata !{i32 786478, i32 0, metadata !347, metadata !"ap_int_base", metadata !"ap_int_base", metadata !"", metadata !77, i32 1368, metadata !389, i1 false, i1 false, i32 0, i32 0, null, i32 384, i1 false, null, null, i32 0, metadata !89, i32 1368} ; [ DW_TAG_subprogram ]
!389 = metadata !{i32 786453, i32 0, metadata !"", i32 0, i32 0, i64 0, i64 0, i64 0, i32 0, null, metadata !390, i32 0, i32 0} ; [ DW_TAG_subroutine_type ]
!390 = metadata !{null, metadata !363, metadata !137}
!391 = metadata !{i32 786478, i32 0, metadata !347, metadata !"ap_int_base", metadata !"ap_int_base", metadata !"", metadata !77, i32 1369, metadata !392, i1 false, i1 false, i32 0, i32 0, null, i32 384, i1 false, null, null, i32 0, metadata !89, i32 1369} ; [ DW_TAG_subprogram ]
!392 = metadata !{i32 786453, i32 0, metadata !"", i32 0, i32 0, i64 0, i64 0, i64 0, i32 0, null, metadata !393, i32 0, i32 0} ; [ DW_TAG_subroutine_type ]
!393 = metadata !{null, metadata !363, metadata !141}
!394 = metadata !{i32 786478, i32 0, metadata !347, metadata !"ap_int_base", metadata !"ap_int_base", metadata !"", metadata !77, i32 1370, metadata !395, i1 false, i1 false, i32 0, i32 0, null, i32 384, i1 false, null, null, i32 0, metadata !89, i32 1370} ; [ DW_TAG_subprogram ]
!395 = metadata !{i32 786453, i32 0, metadata !"", i32 0, i32 0, i64 0, i64 0, i64 0, i32 0, null, metadata !396, i32 0, i32 0} ; [ DW_TAG_subroutine_type ]
!396 = metadata !{null, metadata !363, metadata !145}
!397 = metadata !{i32 786478, i32 0, metadata !347, metadata !"ap_int_base", metadata !"ap_int_base", metadata !"", metadata !77, i32 1371, metadata !398, i1 false, i1 false, i32 0, i32 0, null, i32 384, i1 false, null, null, i32 0, metadata !89, i32 1371} ; [ DW_TAG_subprogram ]
!398 = metadata !{i32 786453, i32 0, metadata !"", i32 0, i32 0, i64 0, i64 0, i64 0, i32 0, null, metadata !399, i32 0, i32 0} ; [ DW_TAG_subroutine_type ]
!399 = metadata !{null, metadata !363, metadata !149}
!400 = metadata !{i32 786478, i32 0, metadata !347, metadata !"ap_int_base", metadata !"ap_int_base", metadata !"", metadata !77, i32 1372, metadata !401, i1 false, i1 false, i32 0, i32 0, null, i32 384, i1 false, null, null, i32 0, metadata !89, i32 1372} ; [ DW_TAG_subprogram ]
!401 = metadata !{i32 786453, i32 0, metadata !"", i32 0, i32 0, i64 0, i64 0, i64 0, i32 0, null, metadata !402, i32 0, i32 0} ; [ DW_TAG_subroutine_type ]
!402 = metadata !{null, metadata !363, metadata !154}
!403 = metadata !{i32 786478, i32 0, metadata !347, metadata !"ap_int_base", metadata !"ap_int_base", metadata !"", metadata !77, i32 1373, metadata !404, i1 false, i1 false, i32 0, i32 0, null, i32 384, i1 false, null, null, i32 0, metadata !89, i32 1373} ; [ DW_TAG_subprogram ]
!404 = metadata !{i32 786453, i32 0, metadata !"", i32 0, i32 0, i64 0, i64 0, i64 0, i32 0, null, metadata !405, i32 0, i32 0} ; [ DW_TAG_subroutine_type ]
!405 = metadata !{null, metadata !363, metadata !159}
!406 = metadata !{i32 786478, i32 0, metadata !347, metadata !"ap_int_base", metadata !"ap_int_base", metadata !"", metadata !77, i32 1374, metadata !407, i1 false, i1 false, i32 0, i32 0, null, i32 384, i1 false, null, null, i32 0, metadata !89, i32 1374} ; [ DW_TAG_subprogram ]
!407 = metadata !{i32 786453, i32 0, metadata !"", i32 0, i32 0, i64 0, i64 0, i64 0, i32 0, null, metadata !408, i32 0, i32 0} ; [ DW_TAG_subroutine_type ]
!408 = metadata !{null, metadata !363, metadata !163}
!409 = metadata !{i32 786478, i32 0, metadata !347, metadata !"ap_int_base", metadata !"ap_int_base", metadata !"", metadata !77, i32 1401, metadata !410, i1 false, i1 false, i32 0, i32 0, null, i32 256, i1 false, null, null, i32 0, metadata !89, i32 1401} ; [ DW_TAG_subprogram ]
!410 = metadata !{i32 786453, i32 0, metadata !"", i32 0, i32 0, i64 0, i64 0, i64 0, i32 0, null, metadata !411, i32 0, i32 0} ; [ DW_TAG_subroutine_type ]
!411 = metadata !{null, metadata !363, metadata !167}
!412 = metadata !{i32 786478, i32 0, metadata !347, metadata !"ap_int_base", metadata !"ap_int_base", metadata !"", metadata !77, i32 1408, metadata !413, i1 false, i1 false, i32 0, i32 0, null, i32 256, i1 false, null, null, i32 0, metadata !89, i32 1408} ; [ DW_TAG_subprogram ]
!413 = metadata !{i32 786453, i32 0, metadata !"", i32 0, i32 0, i64 0, i64 0, i64 0, i32 0, null, metadata !414, i32 0, i32 0} ; [ DW_TAG_subroutine_type ]
!414 = metadata !{null, metadata !363, metadata !167, metadata !118}
!415 = metadata !{i32 786478, i32 0, metadata !347, metadata !"read", metadata !"read", metadata !"_ZNV11ap_int_baseILi8ELb0ELb1EE4readEv", metadata !77, i32 1429, metadata !416, i1 false, i1 false, i32 0, i32 0, null, i32 256, i1 false, null, null, i32 0, metadata !89, i32 1429} ; [ DW_TAG_subprogram ]
!416 = metadata !{i32 786453, i32 0, metadata !"", i32 0, i32 0, i64 0, i64 0, i64 0, i32 0, null, metadata !417, i32 0, i32 0} ; [ DW_TAG_subroutine_type ]
!417 = metadata !{metadata !347, metadata !418}
!418 = metadata !{i32 786447, i32 0, metadata !"", i32 0, i32 0, i64 64, i64 64, i64 0, i32 64, metadata !419} ; [ DW_TAG_pointer_type ]
!419 = metadata !{i32 786485, null, metadata !"", null, i32 0, i64 0, i64 0, i64 0, i32 0, metadata !347} ; [ DW_TAG_volatile_type ]
!420 = metadata !{i32 786478, i32 0, metadata !347, metadata !"write", metadata !"write", metadata !"_ZNV11ap_int_baseILi8ELb0ELb1EE5writeERKS0_", metadata !77, i32 1435, metadata !421, i1 false, i1 false, i32 0, i32 0, null, i32 256, i1 false, null, null, i32 0, metadata !89, i32 1435} ; [ DW_TAG_subprogram ]
!421 = metadata !{i32 786453, i32 0, metadata !"", i32 0, i32 0, i64 0, i64 0, i64 0, i32 0, null, metadata !422, i32 0, i32 0} ; [ DW_TAG_subroutine_type ]
!422 = metadata !{null, metadata !418, metadata !346}
!423 = metadata !{i32 786478, i32 0, metadata !347, metadata !"operator=", metadata !"operator=", metadata !"_ZNV11ap_int_baseILi8ELb0ELb1EEaSERVKS0_", metadata !77, i32 1447, metadata !421, i1 false, i1 false, i32 0, i32 0, null, i32 256, i1 false, null, null, i32 0, metadata !89, i32 1447} ; [ DW_TAG_subprogram ]
!424 = metadata !{i32 786478, i32 0, metadata !347, metadata !"operator=", metadata !"operator=", metadata !"_ZNV11ap_int_baseILi8ELb0ELb1EEaSERKS0_", metadata !77, i32 1456, metadata !421, i1 false, i1 false, i32 0, i32 0, null, i32 256, i1 false, null, null, i32 0, metadata !89, i32 1456} ; [ DW_TAG_subprogram ]
!425 = metadata !{i32 786478, i32 0, metadata !347, metadata !"operator=", metadata !"operator=", metadata !"_ZN11ap_int_baseILi8ELb0ELb1EEaSERVKS0_", metadata !77, i32 1479, metadata !426, i1 false, i1 false, i32 0, i32 0, null, i32 256, i1 false, null, null, i32 0, metadata !89, i32 1479} ; [ DW_TAG_subprogram ]
!426 = metadata !{i32 786453, i32 0, metadata !"", i32 0, i32 0, i64 0, i64 0, i64 0, i32 0, null, metadata !427, i32 0, i32 0} ; [ DW_TAG_subroutine_type ]
!427 = metadata !{metadata !346, metadata !363, metadata !346}
!428 = metadata !{i32 786478, i32 0, metadata !347, metadata !"operator=", metadata !"operator=", metadata !"_ZN11ap_int_baseILi8ELb0ELb1EEaSERKS0_", metadata !77, i32 1484, metadata !426, i1 false, i1 false, i32 0, i32 0, null, i32 256, i1 false, null, null, i32 0, metadata !89, i32 1484} ; [ DW_TAG_subprogram ]
!429 = metadata !{i32 786478, i32 0, metadata !347, metadata !"operator=", metadata !"operator=", metadata !"_ZN11ap_int_baseILi8ELb0ELb1EEaSEPKc", metadata !77, i32 1488, metadata !430, i1 false, i1 false, i32 0, i32 0, null, i32 256, i1 false, null, null, i32 0, metadata !89, i32 1488} ; [ DW_TAG_subprogram ]
!430 = metadata !{i32 786453, i32 0, metadata !"", i32 0, i32 0, i64 0, i64 0, i64 0, i32 0, null, metadata !431, i32 0, i32 0} ; [ DW_TAG_subroutine_type ]
!431 = metadata !{metadata !346, metadata !363, metadata !167}
!432 = metadata !{i32 786478, i32 0, metadata !347, metadata !"set", metadata !"set", metadata !"_ZN11ap_int_baseILi8ELb0ELb1EE3setEPKca", metadata !77, i32 1496, metadata !433, i1 false, i1 false, i32 0, i32 0, null, i32 256, i1 false, null, null, i32 0, metadata !89, i32 1496} ; [ DW_TAG_subprogram ]
!433 = metadata !{i32 786453, i32 0, metadata !"", i32 0, i32 0, i64 0, i64 0, i64 0, i32 0, null, metadata !434, i32 0, i32 0} ; [ DW_TAG_subroutine_type ]
!434 = metadata !{metadata !346, metadata !363, metadata !167, metadata !118}
!435 = metadata !{i32 786478, i32 0, metadata !347, metadata !"operator=", metadata !"operator=", metadata !"_ZN11ap_int_baseILi8ELb0ELb1EEaSEy", metadata !77, i32 1505, metadata !436, i1 false, i1 false, i32 0, i32 0, null, i32 256, i1 false, null, null, i32 0, metadata !89, i32 1505} ; [ DW_TAG_subprogram ]
!436 = metadata !{i32 786453, i32 0, metadata !"", i32 0, i32 0, i64 0, i64 0, i64 0, i32 0, null, metadata !437, i32 0, i32 0} ; [ DW_TAG_subroutine_type ]
!437 = metadata !{metadata !346, metadata !363, metadata !155}
!438 = metadata !{i32 786478, i32 0, metadata !347, metadata !"operator=", metadata !"operator=", metadata !"_ZN11ap_int_baseILi8ELb0ELb1EEaSEx", metadata !77, i32 1510, metadata !439, i1 false, i1 false, i32 0, i32 0, null, i32 256, i1 false, null, null, i32 0, metadata !89, i32 1510} ; [ DW_TAG_subprogram ]
!439 = metadata !{i32 786453, i32 0, metadata !"", i32 0, i32 0, i64 0, i64 0, i64 0, i32 0, null, metadata !440, i32 0, i32 0} ; [ DW_TAG_subroutine_type ]
!440 = metadata !{metadata !346, metadata !363, metadata !150}
!441 = metadata !{i32 786478, i32 0, metadata !347, metadata !"operator unsigned long long", metadata !"operator unsigned long long", metadata !"_ZNK11ap_int_baseILi8ELb0ELb1EEcvyEv", metadata !77, i32 1551, metadata !442, i1 false, i1 false, i32 0, i32 0, null, i32 256, i1 false, null, null, i32 0, metadata !89, i32 1551} ; [ DW_TAG_subprogram ]
!442 = metadata !{i32 786453, i32 0, metadata !"", i32 0, i32 0, i64 0, i64 0, i64 0, i32 0, null, metadata !443, i32 0, i32 0} ; [ DW_TAG_subroutine_type ]
!443 = metadata !{metadata !444, metadata !448}
!444 = metadata !{i32 786454, metadata !347, metadata !"RetType", metadata !77, i32 1307, i64 0, i64 0, i64 0, i32 0, metadata !445} ; [ DW_TAG_typedef ]
!445 = metadata !{i32 786454, metadata !446, metadata !"Type", metadata !77, i32 1292, i64 0, i64 0, i64 0, i32 0, metadata !154} ; [ DW_TAG_typedef ]
!446 = metadata !{i32 786434, null, metadata !"retval<false>", metadata !77, i32 1291, i64 8, i64 8, i32 0, i32 0, null, metadata !268, i32 0, null, metadata !447} ; [ DW_TAG_class_type ]
!447 = metadata !{metadata !98}
!448 = metadata !{i32 786447, i32 0, metadata !"", i32 0, i32 0, i64 64, i64 64, i64 0, i32 64, metadata !449} ; [ DW_TAG_pointer_type ]
!449 = metadata !{i32 786470, null, metadata !"", null, i32 0, i64 0, i64 0, i64 0, i32 0, metadata !347} ; [ DW_TAG_const_type ]
!450 = metadata !{i32 786478, i32 0, metadata !347, metadata !"to_bool", metadata !"to_bool", metadata !"_ZNK11ap_int_baseILi8ELb0ELb1EE7to_boolEv", metadata !77, i32 1557, metadata !451, i1 false, i1 false, i32 0, i32 0, null, i32 256, i1 false, null, null, i32 0, metadata !89, i32 1557} ; [ DW_TAG_subprogram ]
!451 = metadata !{i32 786453, i32 0, metadata !"", i32 0, i32 0, i64 0, i64 0, i64 0, i32 0, null, metadata !452, i32 0, i32 0} ; [ DW_TAG_subroutine_type ]
!452 = metadata !{metadata !99, metadata !448}
!453 = metadata !{i32 786478, i32 0, metadata !347, metadata !"to_int", metadata !"to_int", metadata !"_ZNK11ap_int_baseILi8ELb0ELb1EE6to_intEv", metadata !77, i32 1558, metadata !454, i1 false, i1 false, i32 0, i32 0, null, i32 256, i1 false, null, null, i32 0, metadata !89, i32 1558} ; [ DW_TAG_subprogram ]
!454 = metadata !{i32 786453, i32 0, metadata !"", i32 0, i32 0, i64 0, i64 0, i64 0, i32 0, null, metadata !455, i32 0, i32 0} ; [ DW_TAG_subroutine_type ]
!455 = metadata !{metadata !64, metadata !448}
!456 = metadata !{i32 786478, i32 0, metadata !347, metadata !"to_uint", metadata !"to_uint", metadata !"_ZNK11ap_int_baseILi8ELb0ELb1EE7to_uintEv", metadata !77, i32 1559, metadata !457, i1 false, i1 false, i32 0, i32 0, null, i32 256, i1 false, null, null, i32 0, metadata !89, i32 1559} ; [ DW_TAG_subprogram ]
!457 = metadata !{i32 786453, i32 0, metadata !"", i32 0, i32 0, i64 0, i64 0, i64 0, i32 0, null, metadata !458, i32 0, i32 0} ; [ DW_TAG_subroutine_type ]
!458 = metadata !{metadata !137, metadata !448}
!459 = metadata !{i32 786478, i32 0, metadata !347, metadata !"to_long", metadata !"to_long", metadata !"_ZNK11ap_int_baseILi8ELb0ELb1EE7to_longEv", metadata !77, i32 1560, metadata !460, i1 false, i1 false, i32 0, i32 0, null, i32 256, i1 false, null, null, i32 0, metadata !89, i32 1560} ; [ DW_TAG_subprogram ]
!460 = metadata !{i32 786453, i32 0, metadata !"", i32 0, i32 0, i64 0, i64 0, i64 0, i32 0, null, metadata !461, i32 0, i32 0} ; [ DW_TAG_subroutine_type ]
!461 = metadata !{metadata !141, metadata !448}
!462 = metadata !{i32 786478, i32 0, metadata !347, metadata !"to_ulong", metadata !"to_ulong", metadata !"_ZNK11ap_int_baseILi8ELb0ELb1EE8to_ulongEv", metadata !77, i32 1561, metadata !463, i1 false, i1 false, i32 0, i32 0, null, i32 256, i1 false, null, null, i32 0, metadata !89, i32 1561} ; [ DW_TAG_subprogram ]
!463 = metadata !{i32 786453, i32 0, metadata !"", i32 0, i32 0, i64 0, i64 0, i64 0, i32 0, null, metadata !464, i32 0, i32 0} ; [ DW_TAG_subroutine_type ]
!464 = metadata !{metadata !145, metadata !448}
!465 = metadata !{i32 786478, i32 0, metadata !347, metadata !"to_int64", metadata !"to_int64", metadata !"_ZNK11ap_int_baseILi8ELb0ELb1EE8to_int64Ev", metadata !77, i32 1562, metadata !466, i1 false, i1 false, i32 0, i32 0, null, i32 256, i1 false, null, null, i32 0, metadata !89, i32 1562} ; [ DW_TAG_subprogram ]
!466 = metadata !{i32 786453, i32 0, metadata !"", i32 0, i32 0, i64 0, i64 0, i64 0, i32 0, null, metadata !467, i32 0, i32 0} ; [ DW_TAG_subroutine_type ]
!467 = metadata !{metadata !149, metadata !448}
!468 = metadata !{i32 786478, i32 0, metadata !347, metadata !"to_uint64", metadata !"to_uint64", metadata !"_ZNK11ap_int_baseILi8ELb0ELb1EE9to_uint64Ev", metadata !77, i32 1563, metadata !469, i1 false, i1 false, i32 0, i32 0, null, i32 256, i1 false, null, null, i32 0, metadata !89, i32 1563} ; [ DW_TAG_subprogram ]
!469 = metadata !{i32 786453, i32 0, metadata !"", i32 0, i32 0, i64 0, i64 0, i64 0, i32 0, null, metadata !470, i32 0, i32 0} ; [ DW_TAG_subroutine_type ]
!470 = metadata !{metadata !154, metadata !448}
!471 = metadata !{i32 786478, i32 0, metadata !347, metadata !"to_double", metadata !"to_double", metadata !"_ZNK11ap_int_baseILi8ELb0ELb1EE9to_doubleEv", metadata !77, i32 1564, metadata !472, i1 false, i1 false, i32 0, i32 0, null, i32 256, i1 false, null, null, i32 0, metadata !89, i32 1564} ; [ DW_TAG_subprogram ]
!472 = metadata !{i32 786453, i32 0, metadata !"", i32 0, i32 0, i64 0, i64 0, i64 0, i32 0, null, metadata !473, i32 0, i32 0} ; [ DW_TAG_subroutine_type ]
!473 = metadata !{metadata !163, metadata !448}
!474 = metadata !{i32 786478, i32 0, metadata !347, metadata !"length", metadata !"length", metadata !"_ZNK11ap_int_baseILi8ELb0ELb1EE6lengthEv", metadata !77, i32 1577, metadata !454, i1 false, i1 false, i32 0, i32 0, null, i32 256, i1 false, null, null, i32 0, metadata !89, i32 1577} ; [ DW_TAG_subprogram ]
!475 = metadata !{i32 786478, i32 0, metadata !347, metadata !"length", metadata !"length", metadata !"_ZNVK11ap_int_baseILi8ELb0ELb1EE6lengthEv", metadata !77, i32 1578, metadata !476, i1 false, i1 false, i32 0, i32 0, null, i32 256, i1 false, null, null, i32 0, metadata !89, i32 1578} ; [ DW_TAG_subprogram ]
!476 = metadata !{i32 786453, i32 0, metadata !"", i32 0, i32 0, i64 0, i64 0, i64 0, i32 0, null, metadata !477, i32 0, i32 0} ; [ DW_TAG_subroutine_type ]
!477 = metadata !{metadata !64, metadata !478}
!478 = metadata !{i32 786447, i32 0, metadata !"", i32 0, i32 0, i64 64, i64 64, i64 0, i32 64, metadata !479} ; [ DW_TAG_pointer_type ]
!479 = metadata !{i32 786470, null, metadata !"", null, i32 0, i64 0, i64 0, i64 0, i32 0, metadata !419} ; [ DW_TAG_const_type ]
!480 = metadata !{i32 786478, i32 0, metadata !347, metadata !"reverse", metadata !"reverse", metadata !"_ZN11ap_int_baseILi8ELb0ELb1EE7reverseEv", metadata !77, i32 1583, metadata !481, i1 false, i1 false, i32 0, i32 0, null, i32 256, i1 false, null, null, i32 0, metadata !89, i32 1583} ; [ DW_TAG_subprogram ]
!481 = metadata !{i32 786453, i32 0, metadata !"", i32 0, i32 0, i64 0, i64 0, i64 0, i32 0, null, metadata !482, i32 0, i32 0} ; [ DW_TAG_subroutine_type ]
!482 = metadata !{metadata !346, metadata !363}
!483 = metadata !{i32 786478, i32 0, metadata !347, metadata !"iszero", metadata !"iszero", metadata !"_ZNK11ap_int_baseILi8ELb0ELb1EE6iszeroEv", metadata !77, i32 1589, metadata !451, i1 false, i1 false, i32 0, i32 0, null, i32 256, i1 false, null, null, i32 0, metadata !89, i32 1589} ; [ DW_TAG_subprogram ]
!484 = metadata !{i32 786478, i32 0, metadata !347, metadata !"is_zero", metadata !"is_zero", metadata !"_ZNK11ap_int_baseILi8ELb0ELb1EE7is_zeroEv", metadata !77, i32 1594, metadata !451, i1 false, i1 false, i32 0, i32 0, null, i32 256, i1 false, null, null, i32 0, metadata !89, i32 1594} ; [ DW_TAG_subprogram ]
!485 = metadata !{i32 786478, i32 0, metadata !347, metadata !"sign", metadata !"sign", metadata !"_ZNK11ap_int_baseILi8ELb0ELb1EE4signEv", metadata !77, i32 1599, metadata !451, i1 false, i1 false, i32 0, i32 0, null, i32 256, i1 false, null, null, i32 0, metadata !89, i32 1599} ; [ DW_TAG_subprogram ]
!486 = metadata !{i32 786478, i32 0, metadata !347, metadata !"clear", metadata !"clear", metadata !"_ZN11ap_int_baseILi8ELb0ELb1EE5clearEi", metadata !77, i32 1607, metadata !386, i1 false, i1 false, i32 0, i32 0, null, i32 256, i1 false, null, null, i32 0, metadata !89, i32 1607} ; [ DW_TAG_subprogram ]
!487 = metadata !{i32 786478, i32 0, metadata !347, metadata !"invert", metadata !"invert", metadata !"_ZN11ap_int_baseILi8ELb0ELb1EE6invertEi", metadata !77, i32 1613, metadata !386, i1 false, i1 false, i32 0, i32 0, null, i32 256, i1 false, null, null, i32 0, metadata !89, i32 1613} ; [ DW_TAG_subprogram ]
!488 = metadata !{i32 786478, i32 0, metadata !347, metadata !"test", metadata !"test", metadata !"_ZNK11ap_int_baseILi8ELb0ELb1EE4testEi", metadata !77, i32 1621, metadata !489, i1 false, i1 false, i32 0, i32 0, null, i32 256, i1 false, null, null, i32 0, metadata !89, i32 1621} ; [ DW_TAG_subprogram ]
!489 = metadata !{i32 786453, i32 0, metadata !"", i32 0, i32 0, i64 0, i64 0, i64 0, i32 0, null, metadata !490, i32 0, i32 0} ; [ DW_TAG_subroutine_type ]
!490 = metadata !{metadata !99, metadata !448, metadata !64}
!491 = metadata !{i32 786478, i32 0, metadata !347, metadata !"set", metadata !"set", metadata !"_ZN11ap_int_baseILi8ELb0ELb1EE3setEi", metadata !77, i32 1627, metadata !386, i1 false, i1 false, i32 0, i32 0, null, i32 256, i1 false, null, null, i32 0, metadata !89, i32 1627} ; [ DW_TAG_subprogram ]
!492 = metadata !{i32 786478, i32 0, metadata !347, metadata !"set", metadata !"set", metadata !"_ZN11ap_int_baseILi8ELb0ELb1EE3setEib", metadata !77, i32 1633, metadata !493, i1 false, i1 false, i32 0, i32 0, null, i32 256, i1 false, null, null, i32 0, metadata !89, i32 1633} ; [ DW_TAG_subprogram ]
!493 = metadata !{i32 786453, i32 0, metadata !"", i32 0, i32 0, i64 0, i64 0, i64 0, i32 0, null, metadata !494, i32 0, i32 0} ; [ DW_TAG_subroutine_type ]
!494 = metadata !{null, metadata !363, metadata !64, metadata !99}
!495 = metadata !{i32 786478, i32 0, metadata !347, metadata !"lrotate", metadata !"lrotate", metadata !"_ZN11ap_int_baseILi8ELb0ELb1EE7lrotateEi", metadata !77, i32 1640, metadata !386, i1 false, i1 false, i32 0, i32 0, null, i32 256, i1 false, null, null, i32 0, metadata !89, i32 1640} ; [ DW_TAG_subprogram ]
!496 = metadata !{i32 786478, i32 0, metadata !347, metadata !"rrotate", metadata !"rrotate", metadata !"_ZN11ap_int_baseILi8ELb0ELb1EE7rrotateEi", metadata !77, i32 1649, metadata !386, i1 false, i1 false, i32 0, i32 0, null, i32 256, i1 false, null, null, i32 0, metadata !89, i32 1649} ; [ DW_TAG_subprogram ]
!497 = metadata !{i32 786478, i32 0, metadata !347, metadata !"set_bit", metadata !"set_bit", metadata !"_ZN11ap_int_baseILi8ELb0ELb1EE7set_bitEib", metadata !77, i32 1657, metadata !493, i1 false, i1 false, i32 0, i32 0, null, i32 256, i1 false, null, null, i32 0, metadata !89, i32 1657} ; [ DW_TAG_subprogram ]
!498 = metadata !{i32 786478, i32 0, metadata !347, metadata !"get_bit", metadata !"get_bit", metadata !"_ZNK11ap_int_baseILi8ELb0ELb1EE7get_bitEi", metadata !77, i32 1662, metadata !489, i1 false, i1 false, i32 0, i32 0, null, i32 256, i1 false, null, null, i32 0, metadata !89, i32 1662} ; [ DW_TAG_subprogram ]
!499 = metadata !{i32 786478, i32 0, metadata !347, metadata !"b_not", metadata !"b_not", metadata !"_ZN11ap_int_baseILi8ELb0ELb1EE5b_notEv", metadata !77, i32 1667, metadata !361, i1 false, i1 false, i32 0, i32 0, null, i32 256, i1 false, null, null, i32 0, metadata !89, i32 1667} ; [ DW_TAG_subprogram ]
!500 = metadata !{i32 786478, i32 0, metadata !347, metadata !"countLeadingZeros", metadata !"countLeadingZeros", metadata !"_ZN11ap_int_baseILi8ELb0ELb1EE17countLeadingZerosEv", metadata !77, i32 1674, metadata !501, i1 false, i1 false, i32 0, i32 0, null, i32 256, i1 false, null, null, i32 0, metadata !89, i32 1674} ; [ DW_TAG_subprogram ]
!501 = metadata !{i32 786453, i32 0, metadata !"", i32 0, i32 0, i64 0, i64 0, i64 0, i32 0, null, metadata !502, i32 0, i32 0} ; [ DW_TAG_subroutine_type ]
!502 = metadata !{metadata !64, metadata !363}
!503 = metadata !{i32 786478, i32 0, metadata !347, metadata !"operator++", metadata !"operator++", metadata !"_ZN11ap_int_baseILi8ELb0ELb1EEppEv", metadata !77, i32 1731, metadata !481, i1 false, i1 false, i32 0, i32 0, null, i32 256, i1 false, null, null, i32 0, metadata !89, i32 1731} ; [ DW_TAG_subprogram ]
!504 = metadata !{i32 786478, i32 0, metadata !347, metadata !"operator--", metadata !"operator--", metadata !"_ZN11ap_int_baseILi8ELb0ELb1EEmmEv", metadata !77, i32 1735, metadata !481, i1 false, i1 false, i32 0, i32 0, null, i32 256, i1 false, null, null, i32 0, metadata !89, i32 1735} ; [ DW_TAG_subprogram ]
!505 = metadata !{i32 786478, i32 0, metadata !347, metadata !"operator++", metadata !"operator++", metadata !"_ZN11ap_int_baseILi8ELb0ELb1EEppEi", metadata !77, i32 1743, metadata !506, i1 false, i1 false, i32 0, i32 0, null, i32 256, i1 false, null, null, i32 0, metadata !89, i32 1743} ; [ DW_TAG_subprogram ]
!506 = metadata !{i32 786453, i32 0, metadata !"", i32 0, i32 0, i64 0, i64 0, i64 0, i32 0, null, metadata !507, i32 0, i32 0} ; [ DW_TAG_subroutine_type ]
!507 = metadata !{metadata !449, metadata !363, metadata !64}
!508 = metadata !{i32 786478, i32 0, metadata !347, metadata !"operator--", metadata !"operator--", metadata !"_ZN11ap_int_baseILi8ELb0ELb1EEmmEi", metadata !77, i32 1748, metadata !506, i1 false, i1 false, i32 0, i32 0, null, i32 256, i1 false, null, null, i32 0, metadata !89, i32 1748} ; [ DW_TAG_subprogram ]
!509 = metadata !{i32 786478, i32 0, metadata !347, metadata !"operator+", metadata !"operator+", metadata !"_ZNK11ap_int_baseILi8ELb0ELb1EEpsEv", metadata !77, i32 1757, metadata !510, i1 false, i1 false, i32 0, i32 0, null, i32 256, i1 false, null, null, i32 0, metadata !89, i32 1757} ; [ DW_TAG_subprogram ]
!510 = metadata !{i32 786453, i32 0, metadata !"", i32 0, i32 0, i64 0, i64 0, i64 0, i32 0, null, metadata !511, i32 0, i32 0} ; [ DW_TAG_subroutine_type ]
!511 = metadata !{metadata !347, metadata !448}
!512 = metadata !{i32 786478, i32 0, metadata !347, metadata !"operator!", metadata !"operator!", metadata !"_ZNK11ap_int_baseILi8ELb0ELb1EEntEv", metadata !77, i32 1763, metadata !451, i1 false, i1 false, i32 0, i32 0, null, i32 256, i1 false, null, null, i32 0, metadata !89, i32 1763} ; [ DW_TAG_subprogram ]
!513 = metadata !{i32 786478, i32 0, metadata !347, metadata !"operator-", metadata !"operator-", metadata !"_ZNK11ap_int_baseILi8ELb0ELb1EEngEv", metadata !77, i32 1768, metadata !514, i1 false, i1 false, i32 0, i32 0, null, i32 256, i1 false, null, null, i32 0, metadata !89, i32 1768} ; [ DW_TAG_subprogram ]
!514 = metadata !{i32 786453, i32 0, metadata !"", i32 0, i32 0, i64 0, i64 0, i64 0, i32 0, null, metadata !515, i32 0, i32 0} ; [ DW_TAG_subroutine_type ]
!515 = metadata !{metadata !516, metadata !448}
!516 = metadata !{i32 786434, null, metadata !"ap_int_base<9, true, true>", metadata !77, i32 1302, i64 16, i64 16, i32 0, i32 0, null, metadata !517, i32 0, null, metadata !727} ; [ DW_TAG_class_type ]
!517 = metadata !{metadata !518, metadata !530, metadata !534, metadata !537, metadata !540, metadata !543, metadata !546, metadata !549, metadata !552, metadata !555, metadata !558, metadata !561, metadata !564, metadata !567, metadata !570, metadata !573, metadata !576, metadata !579, metadata !584, metadata !588, metadata !589, metadata !590, metadata !593, metadata !594, metadata !597, metadata !600, metadata !603, metadata !606, metadata !615, metadata !618, metadata !621, metadata !624, metadata !627, metadata !630, metadata !633, metadata !636, metadata !639, metadata !640, metadata !645, metadata !648, metadata !649, metadata !650, metadata !651, metadata !652, metadata !653, metadata !656, metadata !657, metadata !660, metadata !661, metadata !662, metadata !663, metadata !664, metadata !665, metadata !668, metadata !669, metadata !670, metadata !673, metadata !674, metadata !677, metadata !678, metadata !682, metadata !686, metadata !687, metadata !690, metadata !691, metadata !729, metadata !730, metadata !731, metadata !732, metadata !735, metadata !736, metadata !737, metadata !738, metadata !739, metadata !740, metadata !741, metadata !742, metadata !743, metadata !744, metadata !745, metadata !746, metadata !749, metadata !752}
!518 = metadata !{i32 786460, metadata !516, null, metadata !77, i32 0, i64 0, i64 0, i64 0, i32 0, metadata !519} ; [ DW_TAG_inheritance ]
!519 = metadata !{i32 786434, null, metadata !"ssdm_int<9 + 1024 * 0, true>", metadata !81, i32 11, i64 16, i64 16, i32 0, i32 0, null, metadata !520, i32 0, null, metadata !527} ; [ DW_TAG_class_type ]
!520 = metadata !{metadata !521, metadata !523}
!521 = metadata !{i32 786445, metadata !519, metadata !"V", metadata !81, i32 11, i64 9, i64 16, i64 0, i32 0, metadata !522} ; [ DW_TAG_member ]
!522 = metadata !{i32 786468, null, metadata !"int9", null, i32 0, i64 9, i64 16, i64 0, i32 0, i32 5} ; [ DW_TAG_base_type ]
!523 = metadata !{i32 786478, i32 0, metadata !519, metadata !"ssdm_int", metadata !"ssdm_int", metadata !"", metadata !81, i32 11, metadata !524, i1 false, i1 false, i32 0, i32 0, null, i32 256, i1 false, null, null, i32 0, metadata !89, i32 11} ; [ DW_TAG_subprogram ]
!524 = metadata !{i32 786453, i32 0, metadata !"", i32 0, i32 0, i64 0, i64 0, i64 0, i32 0, null, metadata !525, i32 0, i32 0} ; [ DW_TAG_subroutine_type ]
!525 = metadata !{null, metadata !526}
!526 = metadata !{i32 786447, i32 0, metadata !"", i32 0, i32 0, i64 64, i64 64, i64 0, i32 64, metadata !519} ; [ DW_TAG_pointer_type ]
!527 = metadata !{metadata !528, metadata !529}
!528 = metadata !{i32 786480, null, metadata !"_AP_N", metadata !64, i64 9, null, i32 0, i32 0} ; [ DW_TAG_template_value_parameter ]
!529 = metadata !{i32 786480, null, metadata !"_AP_S", metadata !99, i64 1, null, i32 0, i32 0} ; [ DW_TAG_template_value_parameter ]
!530 = metadata !{i32 786478, i32 0, metadata !516, metadata !"ap_int_base", metadata !"ap_int_base", metadata !"", metadata !77, i32 1340, metadata !531, i1 false, i1 false, i32 0, i32 0, null, i32 256, i1 false, null, null, i32 0, metadata !89, i32 1340} ; [ DW_TAG_subprogram ]
!531 = metadata !{i32 786453, i32 0, metadata !"", i32 0, i32 0, i64 0, i64 0, i64 0, i32 0, null, metadata !532, i32 0, i32 0} ; [ DW_TAG_subroutine_type ]
!532 = metadata !{null, metadata !533}
!533 = metadata !{i32 786447, i32 0, metadata !"", i32 0, i32 0, i64 64, i64 64, i64 0, i32 64, metadata !516} ; [ DW_TAG_pointer_type ]
!534 = metadata !{i32 786478, i32 0, metadata !516, metadata !"ap_int_base", metadata !"ap_int_base", metadata !"", metadata !77, i32 1362, metadata !535, i1 false, i1 false, i32 0, i32 0, null, i32 384, i1 false, null, null, i32 0, metadata !89, i32 1362} ; [ DW_TAG_subprogram ]
!535 = metadata !{i32 786453, i32 0, metadata !"", i32 0, i32 0, i64 0, i64 0, i64 0, i32 0, null, metadata !536, i32 0, i32 0} ; [ DW_TAG_subroutine_type ]
!536 = metadata !{null, metadata !533, metadata !99}
!537 = metadata !{i32 786478, i32 0, metadata !516, metadata !"ap_int_base", metadata !"ap_int_base", metadata !"", metadata !77, i32 1363, metadata !538, i1 false, i1 false, i32 0, i32 0, null, i32 384, i1 false, null, null, i32 0, metadata !89, i32 1363} ; [ DW_TAG_subprogram ]
!538 = metadata !{i32 786453, i32 0, metadata !"", i32 0, i32 0, i64 0, i64 0, i64 0, i32 0, null, metadata !539, i32 0, i32 0} ; [ DW_TAG_subroutine_type ]
!539 = metadata !{null, metadata !533, metadata !118}
!540 = metadata !{i32 786478, i32 0, metadata !516, metadata !"ap_int_base", metadata !"ap_int_base", metadata !"", metadata !77, i32 1364, metadata !541, i1 false, i1 false, i32 0, i32 0, null, i32 384, i1 false, null, null, i32 0, metadata !89, i32 1364} ; [ DW_TAG_subprogram ]
!541 = metadata !{i32 786453, i32 0, metadata !"", i32 0, i32 0, i64 0, i64 0, i64 0, i32 0, null, metadata !542, i32 0, i32 0} ; [ DW_TAG_subroutine_type ]
!542 = metadata !{null, metadata !533, metadata !122}
!543 = metadata !{i32 786478, i32 0, metadata !516, metadata !"ap_int_base", metadata !"ap_int_base", metadata !"", metadata !77, i32 1365, metadata !544, i1 false, i1 false, i32 0, i32 0, null, i32 384, i1 false, null, null, i32 0, metadata !89, i32 1365} ; [ DW_TAG_subprogram ]
!544 = metadata !{i32 786453, i32 0, metadata !"", i32 0, i32 0, i64 0, i64 0, i64 0, i32 0, null, metadata !545, i32 0, i32 0} ; [ DW_TAG_subroutine_type ]
!545 = metadata !{null, metadata !533, metadata !126}
!546 = metadata !{i32 786478, i32 0, metadata !516, metadata !"ap_int_base", metadata !"ap_int_base", metadata !"", metadata !77, i32 1366, metadata !547, i1 false, i1 false, i32 0, i32 0, null, i32 384, i1 false, null, null, i32 0, metadata !89, i32 1366} ; [ DW_TAG_subprogram ]
!547 = metadata !{i32 786453, i32 0, metadata !"", i32 0, i32 0, i64 0, i64 0, i64 0, i32 0, null, metadata !548, i32 0, i32 0} ; [ DW_TAG_subroutine_type ]
!548 = metadata !{null, metadata !533, metadata !130}
!549 = metadata !{i32 786478, i32 0, metadata !516, metadata !"ap_int_base", metadata !"ap_int_base", metadata !"", metadata !77, i32 1367, metadata !550, i1 false, i1 false, i32 0, i32 0, null, i32 384, i1 false, null, null, i32 0, metadata !89, i32 1367} ; [ DW_TAG_subprogram ]
!550 = metadata !{i32 786453, i32 0, metadata !"", i32 0, i32 0, i64 0, i64 0, i64 0, i32 0, null, metadata !551, i32 0, i32 0} ; [ DW_TAG_subroutine_type ]
!551 = metadata !{null, metadata !533, metadata !64}
!552 = metadata !{i32 786478, i32 0, metadata !516, metadata !"ap_int_base", metadata !"ap_int_base", metadata !"", metadata !77, i32 1368, metadata !553, i1 false, i1 false, i32 0, i32 0, null, i32 384, i1 false, null, null, i32 0, metadata !89, i32 1368} ; [ DW_TAG_subprogram ]
!553 = metadata !{i32 786453, i32 0, metadata !"", i32 0, i32 0, i64 0, i64 0, i64 0, i32 0, null, metadata !554, i32 0, i32 0} ; [ DW_TAG_subroutine_type ]
!554 = metadata !{null, metadata !533, metadata !137}
!555 = metadata !{i32 786478, i32 0, metadata !516, metadata !"ap_int_base", metadata !"ap_int_base", metadata !"", metadata !77, i32 1369, metadata !556, i1 false, i1 false, i32 0, i32 0, null, i32 384, i1 false, null, null, i32 0, metadata !89, i32 1369} ; [ DW_TAG_subprogram ]
!556 = metadata !{i32 786453, i32 0, metadata !"", i32 0, i32 0, i64 0, i64 0, i64 0, i32 0, null, metadata !557, i32 0, i32 0} ; [ DW_TAG_subroutine_type ]
!557 = metadata !{null, metadata !533, metadata !141}
!558 = metadata !{i32 786478, i32 0, metadata !516, metadata !"ap_int_base", metadata !"ap_int_base", metadata !"", metadata !77, i32 1370, metadata !559, i1 false, i1 false, i32 0, i32 0, null, i32 384, i1 false, null, null, i32 0, metadata !89, i32 1370} ; [ DW_TAG_subprogram ]
!559 = metadata !{i32 786453, i32 0, metadata !"", i32 0, i32 0, i64 0, i64 0, i64 0, i32 0, null, metadata !560, i32 0, i32 0} ; [ DW_TAG_subroutine_type ]
!560 = metadata !{null, metadata !533, metadata !145}
!561 = metadata !{i32 786478, i32 0, metadata !516, metadata !"ap_int_base", metadata !"ap_int_base", metadata !"", metadata !77, i32 1371, metadata !562, i1 false, i1 false, i32 0, i32 0, null, i32 384, i1 false, null, null, i32 0, metadata !89, i32 1371} ; [ DW_TAG_subprogram ]
!562 = metadata !{i32 786453, i32 0, metadata !"", i32 0, i32 0, i64 0, i64 0, i64 0, i32 0, null, metadata !563, i32 0, i32 0} ; [ DW_TAG_subroutine_type ]
!563 = metadata !{null, metadata !533, metadata !149}
!564 = metadata !{i32 786478, i32 0, metadata !516, metadata !"ap_int_base", metadata !"ap_int_base", metadata !"", metadata !77, i32 1372, metadata !565, i1 false, i1 false, i32 0, i32 0, null, i32 384, i1 false, null, null, i32 0, metadata !89, i32 1372} ; [ DW_TAG_subprogram ]
!565 = metadata !{i32 786453, i32 0, metadata !"", i32 0, i32 0, i64 0, i64 0, i64 0, i32 0, null, metadata !566, i32 0, i32 0} ; [ DW_TAG_subroutine_type ]
!566 = metadata !{null, metadata !533, metadata !154}
!567 = metadata !{i32 786478, i32 0, metadata !516, metadata !"ap_int_base", metadata !"ap_int_base", metadata !"", metadata !77, i32 1373, metadata !568, i1 false, i1 false, i32 0, i32 0, null, i32 384, i1 false, null, null, i32 0, metadata !89, i32 1373} ; [ DW_TAG_subprogram ]
!568 = metadata !{i32 786453, i32 0, metadata !"", i32 0, i32 0, i64 0, i64 0, i64 0, i32 0, null, metadata !569, i32 0, i32 0} ; [ DW_TAG_subroutine_type ]
!569 = metadata !{null, metadata !533, metadata !159}
!570 = metadata !{i32 786478, i32 0, metadata !516, metadata !"ap_int_base", metadata !"ap_int_base", metadata !"", metadata !77, i32 1374, metadata !571, i1 false, i1 false, i32 0, i32 0, null, i32 384, i1 false, null, null, i32 0, metadata !89, i32 1374} ; [ DW_TAG_subprogram ]
!571 = metadata !{i32 786453, i32 0, metadata !"", i32 0, i32 0, i64 0, i64 0, i64 0, i32 0, null, metadata !572, i32 0, i32 0} ; [ DW_TAG_subroutine_type ]
!572 = metadata !{null, metadata !533, metadata !163}
!573 = metadata !{i32 786478, i32 0, metadata !516, metadata !"ap_int_base", metadata !"ap_int_base", metadata !"", metadata !77, i32 1401, metadata !574, i1 false, i1 false, i32 0, i32 0, null, i32 256, i1 false, null, null, i32 0, metadata !89, i32 1401} ; [ DW_TAG_subprogram ]
!574 = metadata !{i32 786453, i32 0, metadata !"", i32 0, i32 0, i64 0, i64 0, i64 0, i32 0, null, metadata !575, i32 0, i32 0} ; [ DW_TAG_subroutine_type ]
!575 = metadata !{null, metadata !533, metadata !167}
!576 = metadata !{i32 786478, i32 0, metadata !516, metadata !"ap_int_base", metadata !"ap_int_base", metadata !"", metadata !77, i32 1408, metadata !577, i1 false, i1 false, i32 0, i32 0, null, i32 256, i1 false, null, null, i32 0, metadata !89, i32 1408} ; [ DW_TAG_subprogram ]
!577 = metadata !{i32 786453, i32 0, metadata !"", i32 0, i32 0, i64 0, i64 0, i64 0, i32 0, null, metadata !578, i32 0, i32 0} ; [ DW_TAG_subroutine_type ]
!578 = metadata !{null, metadata !533, metadata !167, metadata !118}
!579 = metadata !{i32 786478, i32 0, metadata !516, metadata !"read", metadata !"read", metadata !"_ZNV11ap_int_baseILi9ELb1ELb1EE4readEv", metadata !77, i32 1429, metadata !580, i1 false, i1 false, i32 0, i32 0, null, i32 256, i1 false, null, null, i32 0, metadata !89, i32 1429} ; [ DW_TAG_subprogram ]
!580 = metadata !{i32 786453, i32 0, metadata !"", i32 0, i32 0, i64 0, i64 0, i64 0, i32 0, null, metadata !581, i32 0, i32 0} ; [ DW_TAG_subroutine_type ]
!581 = metadata !{metadata !516, metadata !582}
!582 = metadata !{i32 786447, i32 0, metadata !"", i32 0, i32 0, i64 64, i64 64, i64 0, i32 64, metadata !583} ; [ DW_TAG_pointer_type ]
!583 = metadata !{i32 786485, null, metadata !"", null, i32 0, i64 0, i64 0, i64 0, i32 0, metadata !516} ; [ DW_TAG_volatile_type ]
!584 = metadata !{i32 786478, i32 0, metadata !516, metadata !"write", metadata !"write", metadata !"_ZNV11ap_int_baseILi9ELb1ELb1EE5writeERKS0_", metadata !77, i32 1435, metadata !585, i1 false, i1 false, i32 0, i32 0, null, i32 256, i1 false, null, null, i32 0, metadata !89, i32 1435} ; [ DW_TAG_subprogram ]
!585 = metadata !{i32 786453, i32 0, metadata !"", i32 0, i32 0, i64 0, i64 0, i64 0, i32 0, null, metadata !586, i32 0, i32 0} ; [ DW_TAG_subroutine_type ]
!586 = metadata !{null, metadata !582, metadata !587}
!587 = metadata !{i32 786448, null, null, null, i32 0, i64 0, i64 0, i64 0, i32 0, metadata !516} ; [ DW_TAG_reference_type ]
!588 = metadata !{i32 786478, i32 0, metadata !516, metadata !"operator=", metadata !"operator=", metadata !"_ZNV11ap_int_baseILi9ELb1ELb1EEaSERVKS0_", metadata !77, i32 1447, metadata !585, i1 false, i1 false, i32 0, i32 0, null, i32 256, i1 false, null, null, i32 0, metadata !89, i32 1447} ; [ DW_TAG_subprogram ]
!589 = metadata !{i32 786478, i32 0, metadata !516, metadata !"operator=", metadata !"operator=", metadata !"_ZNV11ap_int_baseILi9ELb1ELb1EEaSERKS0_", metadata !77, i32 1456, metadata !585, i1 false, i1 false, i32 0, i32 0, null, i32 256, i1 false, null, null, i32 0, metadata !89, i32 1456} ; [ DW_TAG_subprogram ]
!590 = metadata !{i32 786478, i32 0, metadata !516, metadata !"operator=", metadata !"operator=", metadata !"_ZN11ap_int_baseILi9ELb1ELb1EEaSERVKS0_", metadata !77, i32 1479, metadata !591, i1 false, i1 false, i32 0, i32 0, null, i32 256, i1 false, null, null, i32 0, metadata !89, i32 1479} ; [ DW_TAG_subprogram ]
!591 = metadata !{i32 786453, i32 0, metadata !"", i32 0, i32 0, i64 0, i64 0, i64 0, i32 0, null, metadata !592, i32 0, i32 0} ; [ DW_TAG_subroutine_type ]
!592 = metadata !{metadata !587, metadata !533, metadata !587}
!593 = metadata !{i32 786478, i32 0, metadata !516, metadata !"operator=", metadata !"operator=", metadata !"_ZN11ap_int_baseILi9ELb1ELb1EEaSERKS0_", metadata !77, i32 1484, metadata !591, i1 false, i1 false, i32 0, i32 0, null, i32 256, i1 false, null, null, i32 0, metadata !89, i32 1484} ; [ DW_TAG_subprogram ]
!594 = metadata !{i32 786478, i32 0, metadata !516, metadata !"operator=", metadata !"operator=", metadata !"_ZN11ap_int_baseILi9ELb1ELb1EEaSEPKc", metadata !77, i32 1488, metadata !595, i1 false, i1 false, i32 0, i32 0, null, i32 256, i1 false, null, null, i32 0, metadata !89, i32 1488} ; [ DW_TAG_subprogram ]
!595 = metadata !{i32 786453, i32 0, metadata !"", i32 0, i32 0, i64 0, i64 0, i64 0, i32 0, null, metadata !596, i32 0, i32 0} ; [ DW_TAG_subroutine_type ]
!596 = metadata !{metadata !587, metadata !533, metadata !167}
!597 = metadata !{i32 786478, i32 0, metadata !516, metadata !"set", metadata !"set", metadata !"_ZN11ap_int_baseILi9ELb1ELb1EE3setEPKca", metadata !77, i32 1496, metadata !598, i1 false, i1 false, i32 0, i32 0, null, i32 256, i1 false, null, null, i32 0, metadata !89, i32 1496} ; [ DW_TAG_subprogram ]
!598 = metadata !{i32 786453, i32 0, metadata !"", i32 0, i32 0, i64 0, i64 0, i64 0, i32 0, null, metadata !599, i32 0, i32 0} ; [ DW_TAG_subroutine_type ]
!599 = metadata !{metadata !587, metadata !533, metadata !167, metadata !118}
!600 = metadata !{i32 786478, i32 0, metadata !516, metadata !"operator=", metadata !"operator=", metadata !"_ZN11ap_int_baseILi9ELb1ELb1EEaSEy", metadata !77, i32 1505, metadata !601, i1 false, i1 false, i32 0, i32 0, null, i32 256, i1 false, null, null, i32 0, metadata !89, i32 1505} ; [ DW_TAG_subprogram ]
!601 = metadata !{i32 786453, i32 0, metadata !"", i32 0, i32 0, i64 0, i64 0, i64 0, i32 0, null, metadata !602, i32 0, i32 0} ; [ DW_TAG_subroutine_type ]
!602 = metadata !{metadata !587, metadata !533, metadata !155}
!603 = metadata !{i32 786478, i32 0, metadata !516, metadata !"operator=", metadata !"operator=", metadata !"_ZN11ap_int_baseILi9ELb1ELb1EEaSEx", metadata !77, i32 1510, metadata !604, i1 false, i1 false, i32 0, i32 0, null, i32 256, i1 false, null, null, i32 0, metadata !89, i32 1510} ; [ DW_TAG_subprogram ]
!604 = metadata !{i32 786453, i32 0, metadata !"", i32 0, i32 0, i64 0, i64 0, i64 0, i32 0, null, metadata !605, i32 0, i32 0} ; [ DW_TAG_subroutine_type ]
!605 = metadata !{metadata !587, metadata !533, metadata !150}
!606 = metadata !{i32 786478, i32 0, metadata !516, metadata !"operator long long", metadata !"operator long long", metadata !"_ZNK11ap_int_baseILi9ELb1ELb1EEcvxEv", metadata !77, i32 1551, metadata !607, i1 false, i1 false, i32 0, i32 0, null, i32 256, i1 false, null, null, i32 0, metadata !89, i32 1551} ; [ DW_TAG_subprogram ]
!607 = metadata !{i32 786453, i32 0, metadata !"", i32 0, i32 0, i64 0, i64 0, i64 0, i32 0, null, metadata !608, i32 0, i32 0} ; [ DW_TAG_subroutine_type ]
!608 = metadata !{metadata !609, metadata !613}
!609 = metadata !{i32 786454, metadata !516, metadata !"RetType", metadata !77, i32 1307, i64 0, i64 0, i64 0, i32 0, metadata !610} ; [ DW_TAG_typedef ]
!610 = metadata !{i32 786454, metadata !611, metadata !"Type", metadata !77, i32 1289, i64 0, i64 0, i64 0, i32 0, metadata !149} ; [ DW_TAG_typedef ]
!611 = metadata !{i32 786434, null, metadata !"retval<true>", metadata !77, i32 1288, i64 8, i64 8, i32 0, i32 0, null, metadata !268, i32 0, null, metadata !612} ; [ DW_TAG_class_type ]
!612 = metadata !{metadata !529}
!613 = metadata !{i32 786447, i32 0, metadata !"", i32 0, i32 0, i64 64, i64 64, i64 0, i32 64, metadata !614} ; [ DW_TAG_pointer_type ]
!614 = metadata !{i32 786470, null, metadata !"", null, i32 0, i64 0, i64 0, i64 0, i32 0, metadata !516} ; [ DW_TAG_const_type ]
!615 = metadata !{i32 786478, i32 0, metadata !516, metadata !"to_bool", metadata !"to_bool", metadata !"_ZNK11ap_int_baseILi9ELb1ELb1EE7to_boolEv", metadata !77, i32 1557, metadata !616, i1 false, i1 false, i32 0, i32 0, null, i32 256, i1 false, null, null, i32 0, metadata !89, i32 1557} ; [ DW_TAG_subprogram ]
!616 = metadata !{i32 786453, i32 0, metadata !"", i32 0, i32 0, i64 0, i64 0, i64 0, i32 0, null, metadata !617, i32 0, i32 0} ; [ DW_TAG_subroutine_type ]
!617 = metadata !{metadata !99, metadata !613}
!618 = metadata !{i32 786478, i32 0, metadata !516, metadata !"to_int", metadata !"to_int", metadata !"_ZNK11ap_int_baseILi9ELb1ELb1EE6to_intEv", metadata !77, i32 1558, metadata !619, i1 false, i1 false, i32 0, i32 0, null, i32 256, i1 false, null, null, i32 0, metadata !89, i32 1558} ; [ DW_TAG_subprogram ]
!619 = metadata !{i32 786453, i32 0, metadata !"", i32 0, i32 0, i64 0, i64 0, i64 0, i32 0, null, metadata !620, i32 0, i32 0} ; [ DW_TAG_subroutine_type ]
!620 = metadata !{metadata !64, metadata !613}
!621 = metadata !{i32 786478, i32 0, metadata !516, metadata !"to_uint", metadata !"to_uint", metadata !"_ZNK11ap_int_baseILi9ELb1ELb1EE7to_uintEv", metadata !77, i32 1559, metadata !622, i1 false, i1 false, i32 0, i32 0, null, i32 256, i1 false, null, null, i32 0, metadata !89, i32 1559} ; [ DW_TAG_subprogram ]
!622 = metadata !{i32 786453, i32 0, metadata !"", i32 0, i32 0, i64 0, i64 0, i64 0, i32 0, null, metadata !623, i32 0, i32 0} ; [ DW_TAG_subroutine_type ]
!623 = metadata !{metadata !137, metadata !613}
!624 = metadata !{i32 786478, i32 0, metadata !516, metadata !"to_long", metadata !"to_long", metadata !"_ZNK11ap_int_baseILi9ELb1ELb1EE7to_longEv", metadata !77, i32 1560, metadata !625, i1 false, i1 false, i32 0, i32 0, null, i32 256, i1 false, null, null, i32 0, metadata !89, i32 1560} ; [ DW_TAG_subprogram ]
!625 = metadata !{i32 786453, i32 0, metadata !"", i32 0, i32 0, i64 0, i64 0, i64 0, i32 0, null, metadata !626, i32 0, i32 0} ; [ DW_TAG_subroutine_type ]
!626 = metadata !{metadata !141, metadata !613}
!627 = metadata !{i32 786478, i32 0, metadata !516, metadata !"to_ulong", metadata !"to_ulong", metadata !"_ZNK11ap_int_baseILi9ELb1ELb1EE8to_ulongEv", metadata !77, i32 1561, metadata !628, i1 false, i1 false, i32 0, i32 0, null, i32 256, i1 false, null, null, i32 0, metadata !89, i32 1561} ; [ DW_TAG_subprogram ]
!628 = metadata !{i32 786453, i32 0, metadata !"", i32 0, i32 0, i64 0, i64 0, i64 0, i32 0, null, metadata !629, i32 0, i32 0} ; [ DW_TAG_subroutine_type ]
!629 = metadata !{metadata !145, metadata !613}
!630 = metadata !{i32 786478, i32 0, metadata !516, metadata !"to_int64", metadata !"to_int64", metadata !"_ZNK11ap_int_baseILi9ELb1ELb1EE8to_int64Ev", metadata !77, i32 1562, metadata !631, i1 false, i1 false, i32 0, i32 0, null, i32 256, i1 false, null, null, i32 0, metadata !89, i32 1562} ; [ DW_TAG_subprogram ]
!631 = metadata !{i32 786453, i32 0, metadata !"", i32 0, i32 0, i64 0, i64 0, i64 0, i32 0, null, metadata !632, i32 0, i32 0} ; [ DW_TAG_subroutine_type ]
!632 = metadata !{metadata !149, metadata !613}
!633 = metadata !{i32 786478, i32 0, metadata !516, metadata !"to_uint64", metadata !"to_uint64", metadata !"_ZNK11ap_int_baseILi9ELb1ELb1EE9to_uint64Ev", metadata !77, i32 1563, metadata !634, i1 false, i1 false, i32 0, i32 0, null, i32 256, i1 false, null, null, i32 0, metadata !89, i32 1563} ; [ DW_TAG_subprogram ]
!634 = metadata !{i32 786453, i32 0, metadata !"", i32 0, i32 0, i64 0, i64 0, i64 0, i32 0, null, metadata !635, i32 0, i32 0} ; [ DW_TAG_subroutine_type ]
!635 = metadata !{metadata !154, metadata !613}
!636 = metadata !{i32 786478, i32 0, metadata !516, metadata !"to_double", metadata !"to_double", metadata !"_ZNK11ap_int_baseILi9ELb1ELb1EE9to_doubleEv", metadata !77, i32 1564, metadata !637, i1 false, i1 false, i32 0, i32 0, null, i32 256, i1 false, null, null, i32 0, metadata !89, i32 1564} ; [ DW_TAG_subprogram ]
!637 = metadata !{i32 786453, i32 0, metadata !"", i32 0, i32 0, i64 0, i64 0, i64 0, i32 0, null, metadata !638, i32 0, i32 0} ; [ DW_TAG_subroutine_type ]
!638 = metadata !{metadata !163, metadata !613}
!639 = metadata !{i32 786478, i32 0, metadata !516, metadata !"length", metadata !"length", metadata !"_ZNK11ap_int_baseILi9ELb1ELb1EE6lengthEv", metadata !77, i32 1577, metadata !619, i1 false, i1 false, i32 0, i32 0, null, i32 256, i1 false, null, null, i32 0, metadata !89, i32 1577} ; [ DW_TAG_subprogram ]
!640 = metadata !{i32 786478, i32 0, metadata !516, metadata !"length", metadata !"length", metadata !"_ZNVK11ap_int_baseILi9ELb1ELb1EE6lengthEv", metadata !77, i32 1578, metadata !641, i1 false, i1 false, i32 0, i32 0, null, i32 256, i1 false, null, null, i32 0, metadata !89, i32 1578} ; [ DW_TAG_subprogram ]
!641 = metadata !{i32 786453, i32 0, metadata !"", i32 0, i32 0, i64 0, i64 0, i64 0, i32 0, null, metadata !642, i32 0, i32 0} ; [ DW_TAG_subroutine_type ]
!642 = metadata !{metadata !64, metadata !643}
!643 = metadata !{i32 786447, i32 0, metadata !"", i32 0, i32 0, i64 64, i64 64, i64 0, i32 64, metadata !644} ; [ DW_TAG_pointer_type ]
!644 = metadata !{i32 786470, null, metadata !"", null, i32 0, i64 0, i64 0, i64 0, i32 0, metadata !583} ; [ DW_TAG_const_type ]
!645 = metadata !{i32 786478, i32 0, metadata !516, metadata !"reverse", metadata !"reverse", metadata !"_ZN11ap_int_baseILi9ELb1ELb1EE7reverseEv", metadata !77, i32 1583, metadata !646, i1 false, i1 false, i32 0, i32 0, null, i32 256, i1 false, null, null, i32 0, metadata !89, i32 1583} ; [ DW_TAG_subprogram ]
!646 = metadata !{i32 786453, i32 0, metadata !"", i32 0, i32 0, i64 0, i64 0, i64 0, i32 0, null, metadata !647, i32 0, i32 0} ; [ DW_TAG_subroutine_type ]
!647 = metadata !{metadata !587, metadata !533}
!648 = metadata !{i32 786478, i32 0, metadata !516, metadata !"iszero", metadata !"iszero", metadata !"_ZNK11ap_int_baseILi9ELb1ELb1EE6iszeroEv", metadata !77, i32 1589, metadata !616, i1 false, i1 false, i32 0, i32 0, null, i32 256, i1 false, null, null, i32 0, metadata !89, i32 1589} ; [ DW_TAG_subprogram ]
!649 = metadata !{i32 786478, i32 0, metadata !516, metadata !"is_zero", metadata !"is_zero", metadata !"_ZNK11ap_int_baseILi9ELb1ELb1EE7is_zeroEv", metadata !77, i32 1594, metadata !616, i1 false, i1 false, i32 0, i32 0, null, i32 256, i1 false, null, null, i32 0, metadata !89, i32 1594} ; [ DW_TAG_subprogram ]
!650 = metadata !{i32 786478, i32 0, metadata !516, metadata !"sign", metadata !"sign", metadata !"_ZNK11ap_int_baseILi9ELb1ELb1EE4signEv", metadata !77, i32 1599, metadata !616, i1 false, i1 false, i32 0, i32 0, null, i32 256, i1 false, null, null, i32 0, metadata !89, i32 1599} ; [ DW_TAG_subprogram ]
!651 = metadata !{i32 786478, i32 0, metadata !516, metadata !"clear", metadata !"clear", metadata !"_ZN11ap_int_baseILi9ELb1ELb1EE5clearEi", metadata !77, i32 1607, metadata !550, i1 false, i1 false, i32 0, i32 0, null, i32 256, i1 false, null, null, i32 0, metadata !89, i32 1607} ; [ DW_TAG_subprogram ]
!652 = metadata !{i32 786478, i32 0, metadata !516, metadata !"invert", metadata !"invert", metadata !"_ZN11ap_int_baseILi9ELb1ELb1EE6invertEi", metadata !77, i32 1613, metadata !550, i1 false, i1 false, i32 0, i32 0, null, i32 256, i1 false, null, null, i32 0, metadata !89, i32 1613} ; [ DW_TAG_subprogram ]
!653 = metadata !{i32 786478, i32 0, metadata !516, metadata !"test", metadata !"test", metadata !"_ZNK11ap_int_baseILi9ELb1ELb1EE4testEi", metadata !77, i32 1621, metadata !654, i1 false, i1 false, i32 0, i32 0, null, i32 256, i1 false, null, null, i32 0, metadata !89, i32 1621} ; [ DW_TAG_subprogram ]
!654 = metadata !{i32 786453, i32 0, metadata !"", i32 0, i32 0, i64 0, i64 0, i64 0, i32 0, null, metadata !655, i32 0, i32 0} ; [ DW_TAG_subroutine_type ]
!655 = metadata !{metadata !99, metadata !613, metadata !64}
!656 = metadata !{i32 786478, i32 0, metadata !516, metadata !"set", metadata !"set", metadata !"_ZN11ap_int_baseILi9ELb1ELb1EE3setEi", metadata !77, i32 1627, metadata !550, i1 false, i1 false, i32 0, i32 0, null, i32 256, i1 false, null, null, i32 0, metadata !89, i32 1627} ; [ DW_TAG_subprogram ]
!657 = metadata !{i32 786478, i32 0, metadata !516, metadata !"set", metadata !"set", metadata !"_ZN11ap_int_baseILi9ELb1ELb1EE3setEib", metadata !77, i32 1633, metadata !658, i1 false, i1 false, i32 0, i32 0, null, i32 256, i1 false, null, null, i32 0, metadata !89, i32 1633} ; [ DW_TAG_subprogram ]
!658 = metadata !{i32 786453, i32 0, metadata !"", i32 0, i32 0, i64 0, i64 0, i64 0, i32 0, null, metadata !659, i32 0, i32 0} ; [ DW_TAG_subroutine_type ]
!659 = metadata !{null, metadata !533, metadata !64, metadata !99}
!660 = metadata !{i32 786478, i32 0, metadata !516, metadata !"lrotate", metadata !"lrotate", metadata !"_ZN11ap_int_baseILi9ELb1ELb1EE7lrotateEi", metadata !77, i32 1640, metadata !550, i1 false, i1 false, i32 0, i32 0, null, i32 256, i1 false, null, null, i32 0, metadata !89, i32 1640} ; [ DW_TAG_subprogram ]
!661 = metadata !{i32 786478, i32 0, metadata !516, metadata !"rrotate", metadata !"rrotate", metadata !"_ZN11ap_int_baseILi9ELb1ELb1EE7rrotateEi", metadata !77, i32 1649, metadata !550, i1 false, i1 false, i32 0, i32 0, null, i32 256, i1 false, null, null, i32 0, metadata !89, i32 1649} ; [ DW_TAG_subprogram ]
!662 = metadata !{i32 786478, i32 0, metadata !516, metadata !"set_bit", metadata !"set_bit", metadata !"_ZN11ap_int_baseILi9ELb1ELb1EE7set_bitEib", metadata !77, i32 1657, metadata !658, i1 false, i1 false, i32 0, i32 0, null, i32 256, i1 false, null, null, i32 0, metadata !89, i32 1657} ; [ DW_TAG_subprogram ]
!663 = metadata !{i32 786478, i32 0, metadata !516, metadata !"get_bit", metadata !"get_bit", metadata !"_ZNK11ap_int_baseILi9ELb1ELb1EE7get_bitEi", metadata !77, i32 1662, metadata !654, i1 false, i1 false, i32 0, i32 0, null, i32 256, i1 false, null, null, i32 0, metadata !89, i32 1662} ; [ DW_TAG_subprogram ]
!664 = metadata !{i32 786478, i32 0, metadata !516, metadata !"b_not", metadata !"b_not", metadata !"_ZN11ap_int_baseILi9ELb1ELb1EE5b_notEv", metadata !77, i32 1667, metadata !531, i1 false, i1 false, i32 0, i32 0, null, i32 256, i1 false, null, null, i32 0, metadata !89, i32 1667} ; [ DW_TAG_subprogram ]
!665 = metadata !{i32 786478, i32 0, metadata !516, metadata !"countLeadingZeros", metadata !"countLeadingZeros", metadata !"_ZN11ap_int_baseILi9ELb1ELb1EE17countLeadingZerosEv", metadata !77, i32 1674, metadata !666, i1 false, i1 false, i32 0, i32 0, null, i32 256, i1 false, null, null, i32 0, metadata !89, i32 1674} ; [ DW_TAG_subprogram ]
!666 = metadata !{i32 786453, i32 0, metadata !"", i32 0, i32 0, i64 0, i64 0, i64 0, i32 0, null, metadata !667, i32 0, i32 0} ; [ DW_TAG_subroutine_type ]
!667 = metadata !{metadata !64, metadata !533}
!668 = metadata !{i32 786478, i32 0, metadata !516, metadata !"operator++", metadata !"operator++", metadata !"_ZN11ap_int_baseILi9ELb1ELb1EEppEv", metadata !77, i32 1731, metadata !646, i1 false, i1 false, i32 0, i32 0, null, i32 256, i1 false, null, null, i32 0, metadata !89, i32 1731} ; [ DW_TAG_subprogram ]
!669 = metadata !{i32 786478, i32 0, metadata !516, metadata !"operator--", metadata !"operator--", metadata !"_ZN11ap_int_baseILi9ELb1ELb1EEmmEv", metadata !77, i32 1735, metadata !646, i1 false, i1 false, i32 0, i32 0, null, i32 256, i1 false, null, null, i32 0, metadata !89, i32 1735} ; [ DW_TAG_subprogram ]
!670 = metadata !{i32 786478, i32 0, metadata !516, metadata !"operator++", metadata !"operator++", metadata !"_ZN11ap_int_baseILi9ELb1ELb1EEppEi", metadata !77, i32 1743, metadata !671, i1 false, i1 false, i32 0, i32 0, null, i32 256, i1 false, null, null, i32 0, metadata !89, i32 1743} ; [ DW_TAG_subprogram ]
!671 = metadata !{i32 786453, i32 0, metadata !"", i32 0, i32 0, i64 0, i64 0, i64 0, i32 0, null, metadata !672, i32 0, i32 0} ; [ DW_TAG_subroutine_type ]
!672 = metadata !{metadata !614, metadata !533, metadata !64}
!673 = metadata !{i32 786478, i32 0, metadata !516, metadata !"operator--", metadata !"operator--", metadata !"_ZN11ap_int_baseILi9ELb1ELb1EEmmEi", metadata !77, i32 1748, metadata !671, i1 false, i1 false, i32 0, i32 0, null, i32 256, i1 false, null, null, i32 0, metadata !89, i32 1748} ; [ DW_TAG_subprogram ]
!674 = metadata !{i32 786478, i32 0, metadata !516, metadata !"operator+", metadata !"operator+", metadata !"_ZNK11ap_int_baseILi9ELb1ELb1EEpsEv", metadata !77, i32 1757, metadata !675, i1 false, i1 false, i32 0, i32 0, null, i32 256, i1 false, null, null, i32 0, metadata !89, i32 1757} ; [ DW_TAG_subprogram ]
!675 = metadata !{i32 786453, i32 0, metadata !"", i32 0, i32 0, i64 0, i64 0, i64 0, i32 0, null, metadata !676, i32 0, i32 0} ; [ DW_TAG_subroutine_type ]
!676 = metadata !{metadata !516, metadata !613}
!677 = metadata !{i32 786478, i32 0, metadata !516, metadata !"operator!", metadata !"operator!", metadata !"_ZNK11ap_int_baseILi9ELb1ELb1EEntEv", metadata !77, i32 1763, metadata !616, i1 false, i1 false, i32 0, i32 0, null, i32 256, i1 false, null, null, i32 0, metadata !89, i32 1763} ; [ DW_TAG_subprogram ]
!678 = metadata !{i32 786478, i32 0, metadata !516, metadata !"operator-", metadata !"operator-", metadata !"_ZNK11ap_int_baseILi9ELb1ELb1EEngEv", metadata !77, i32 1768, metadata !679, i1 false, i1 false, i32 0, i32 0, null, i32 256, i1 false, null, null, i32 0, metadata !89, i32 1768} ; [ DW_TAG_subprogram ]
!679 = metadata !{i32 786453, i32 0, metadata !"", i32 0, i32 0, i64 0, i64 0, i64 0, i32 0, null, metadata !680, i32 0, i32 0} ; [ DW_TAG_subroutine_type ]
!680 = metadata !{metadata !681, metadata !613}
!681 = metadata !{i32 786434, null, metadata !"ap_int_base<10, true, true>", metadata !77, i32 605, i32 0, i32 0, i32 0, i32 4, null, null, i32 0} ; [ DW_TAG_class_type ]
!682 = metadata !{i32 786478, i32 0, metadata !516, metadata !"range", metadata !"range", metadata !"_ZN11ap_int_baseILi9ELb1ELb1EE5rangeEii", metadata !77, i32 1898, metadata !683, i1 false, i1 false, i32 0, i32 0, null, i32 256, i1 false, null, null, i32 0, metadata !89, i32 1898} ; [ DW_TAG_subprogram ]
!683 = metadata !{i32 786453, i32 0, metadata !"", i32 0, i32 0, i64 0, i64 0, i64 0, i32 0, null, metadata !684, i32 0, i32 0} ; [ DW_TAG_subroutine_type ]
!684 = metadata !{metadata !685, metadata !533, metadata !64, metadata !64}
!685 = metadata !{i32 786434, null, metadata !"ap_range_ref<9, true>", metadata !77, i32 878, i32 0, i32 0, i32 0, i32 4, null, null, i32 0} ; [ DW_TAG_class_type ]
!686 = metadata !{i32 786478, i32 0, metadata !516, metadata !"operator()", metadata !"operator()", metadata !"_ZN11ap_int_baseILi9ELb1ELb1EEclEii", metadata !77, i32 1904, metadata !683, i1 false, i1 false, i32 0, i32 0, null, i32 256, i1 false, null, null, i32 0, metadata !89, i32 1904} ; [ DW_TAG_subprogram ]
!687 = metadata !{i32 786478, i32 0, metadata !516, metadata !"range", metadata !"range", metadata !"_ZNK11ap_int_baseILi9ELb1ELb1EE5rangeEii", metadata !77, i32 1910, metadata !688, i1 false, i1 false, i32 0, i32 0, null, i32 256, i1 false, null, null, i32 0, metadata !89, i32 1910} ; [ DW_TAG_subprogram ]
!688 = metadata !{i32 786453, i32 0, metadata !"", i32 0, i32 0, i64 0, i64 0, i64 0, i32 0, null, metadata !689, i32 0, i32 0} ; [ DW_TAG_subroutine_type ]
!689 = metadata !{metadata !685, metadata !613, metadata !64, metadata !64}
!690 = metadata !{i32 786478, i32 0, metadata !516, metadata !"operator()", metadata !"operator()", metadata !"_ZNK11ap_int_baseILi9ELb1ELb1EEclEii", metadata !77, i32 1916, metadata !688, i1 false, i1 false, i32 0, i32 0, null, i32 256, i1 false, null, null, i32 0, metadata !89, i32 1916} ; [ DW_TAG_subprogram ]
!691 = metadata !{i32 786478, i32 0, metadata !516, metadata !"operator[]", metadata !"operator[]", metadata !"_ZN11ap_int_baseILi9ELb1ELb1EEixEi", metadata !77, i32 1935, metadata !692, i1 false, i1 false, i32 0, i32 0, null, i32 256, i1 false, null, null, i32 0, metadata !89, i32 1935} ; [ DW_TAG_subprogram ]
!692 = metadata !{i32 786453, i32 0, metadata !"", i32 0, i32 0, i64 0, i64 0, i64 0, i32 0, null, metadata !693, i32 0, i32 0} ; [ DW_TAG_subroutine_type ]
!693 = metadata !{metadata !694, metadata !533, metadata !64}
!694 = metadata !{i32 786434, null, metadata !"ap_bit_ref<9, true>", metadata !77, i32 1124, i64 128, i64 64, i32 0, i32 0, null, metadata !695, i32 0, null, metadata !727} ; [ DW_TAG_class_type ]
!695 = metadata !{metadata !696, metadata !697, metadata !698, metadata !703, metadata !707, metadata !712, metadata !713, metadata !716, metadata !719, metadata !720, metadata !723, metadata !724}
!696 = metadata !{i32 786445, metadata !694, metadata !"d_bv", metadata !77, i32 1125, i64 64, i64 64, i64 0, i32 0, metadata !587} ; [ DW_TAG_member ]
!697 = metadata !{i32 786445, metadata !694, metadata !"d_index", metadata !77, i32 1126, i64 32, i64 32, i64 64, i32 0, metadata !64} ; [ DW_TAG_member ]
!698 = metadata !{i32 786478, i32 0, metadata !694, metadata !"ap_bit_ref", metadata !"ap_bit_ref", metadata !"", metadata !77, i32 1129, metadata !699, i1 false, i1 false, i32 0, i32 0, null, i32 256, i1 false, null, null, i32 0, metadata !89, i32 1129} ; [ DW_TAG_subprogram ]
!699 = metadata !{i32 786453, i32 0, metadata !"", i32 0, i32 0, i64 0, i64 0, i64 0, i32 0, null, metadata !700, i32 0, i32 0} ; [ DW_TAG_subroutine_type ]
!700 = metadata !{null, metadata !701, metadata !702}
!701 = metadata !{i32 786447, i32 0, metadata !"", i32 0, i32 0, i64 64, i64 64, i64 0, i32 64, metadata !694} ; [ DW_TAG_pointer_type ]
!702 = metadata !{i32 786448, null, null, null, i32 0, i64 0, i64 0, i64 0, i32 0, metadata !694} ; [ DW_TAG_reference_type ]
!703 = metadata !{i32 786478, i32 0, metadata !694, metadata !"ap_bit_ref", metadata !"ap_bit_ref", metadata !"", metadata !77, i32 1132, metadata !704, i1 false, i1 false, i32 0, i32 0, null, i32 256, i1 false, null, null, i32 0, metadata !89, i32 1132} ; [ DW_TAG_subprogram ]
!704 = metadata !{i32 786453, i32 0, metadata !"", i32 0, i32 0, i64 0, i64 0, i64 0, i32 0, null, metadata !705, i32 0, i32 0} ; [ DW_TAG_subroutine_type ]
!705 = metadata !{null, metadata !701, metadata !706, metadata !64}
!706 = metadata !{i32 786447, null, metadata !"", null, i32 0, i64 64, i64 64, i64 0, i32 0, metadata !516} ; [ DW_TAG_pointer_type ]
!707 = metadata !{i32 786478, i32 0, metadata !694, metadata !"operator _Bool", metadata !"operator _Bool", metadata !"_ZNK10ap_bit_refILi9ELb1EEcvbEv", metadata !77, i32 1134, metadata !708, i1 false, i1 false, i32 0, i32 0, null, i32 256, i1 false, null, null, i32 0, metadata !89, i32 1134} ; [ DW_TAG_subprogram ]
!708 = metadata !{i32 786453, i32 0, metadata !"", i32 0, i32 0, i64 0, i64 0, i64 0, i32 0, null, metadata !709, i32 0, i32 0} ; [ DW_TAG_subroutine_type ]
!709 = metadata !{metadata !99, metadata !710}
!710 = metadata !{i32 786447, i32 0, metadata !"", i32 0, i32 0, i64 64, i64 64, i64 0, i32 64, metadata !711} ; [ DW_TAG_pointer_type ]
!711 = metadata !{i32 786470, null, metadata !"", null, i32 0, i64 0, i64 0, i64 0, i32 0, metadata !694} ; [ DW_TAG_const_type ]
!712 = metadata !{i32 786478, i32 0, metadata !694, metadata !"to_bool", metadata !"to_bool", metadata !"_ZNK10ap_bit_refILi9ELb1EE7to_boolEv", metadata !77, i32 1135, metadata !708, i1 false, i1 false, i32 0, i32 0, null, i32 256, i1 false, null, null, i32 0, metadata !89, i32 1135} ; [ DW_TAG_subprogram ]
!713 = metadata !{i32 786478, i32 0, metadata !694, metadata !"operator=", metadata !"operator=", metadata !"_ZN10ap_bit_refILi9ELb1EEaSEy", metadata !77, i32 1137, metadata !714, i1 false, i1 false, i32 0, i32 0, null, i32 256, i1 false, null, null, i32 0, metadata !89, i32 1137} ; [ DW_TAG_subprogram ]
!714 = metadata !{i32 786453, i32 0, metadata !"", i32 0, i32 0, i64 0, i64 0, i64 0, i32 0, null, metadata !715, i32 0, i32 0} ; [ DW_TAG_subroutine_type ]
!715 = metadata !{metadata !702, metadata !701, metadata !155}
!716 = metadata !{i32 786478, i32 0, metadata !694, metadata !"operator=", metadata !"operator=", metadata !"_ZN10ap_bit_refILi9ELb1EEaSERKS0_", metadata !77, i32 1157, metadata !717, i1 false, i1 false, i32 0, i32 0, null, i32 256, i1 false, null, null, i32 0, metadata !89, i32 1157} ; [ DW_TAG_subprogram ]
!717 = metadata !{i32 786453, i32 0, metadata !"", i32 0, i32 0, i64 0, i64 0, i64 0, i32 0, null, metadata !718, i32 0, i32 0} ; [ DW_TAG_subroutine_type ]
!718 = metadata !{metadata !702, metadata !701, metadata !702}
!719 = metadata !{i32 786478, i32 0, metadata !694, metadata !"get", metadata !"get", metadata !"_ZNK10ap_bit_refILi9ELb1EE3getEv", metadata !77, i32 1265, metadata !708, i1 false, i1 false, i32 0, i32 0, null, i32 256, i1 false, null, null, i32 0, metadata !89, i32 1265} ; [ DW_TAG_subprogram ]
!720 = metadata !{i32 786478, i32 0, metadata !694, metadata !"get", metadata !"get", metadata !"_ZN10ap_bit_refILi9ELb1EE3getEv", metadata !77, i32 1269, metadata !721, i1 false, i1 false, i32 0, i32 0, null, i32 256, i1 false, null, null, i32 0, metadata !89, i32 1269} ; [ DW_TAG_subprogram ]
!721 = metadata !{i32 786453, i32 0, metadata !"", i32 0, i32 0, i64 0, i64 0, i64 0, i32 0, null, metadata !722, i32 0, i32 0} ; [ DW_TAG_subroutine_type ]
!722 = metadata !{metadata !99, metadata !701}
!723 = metadata !{i32 786478, i32 0, metadata !694, metadata !"operator~", metadata !"operator~", metadata !"_ZNK10ap_bit_refILi9ELb1EEcoEv", metadata !77, i32 1278, metadata !708, i1 false, i1 false, i32 0, i32 0, null, i32 256, i1 false, null, null, i32 0, metadata !89, i32 1278} ; [ DW_TAG_subprogram ]
!724 = metadata !{i32 786478, i32 0, metadata !694, metadata !"length", metadata !"length", metadata !"_ZNK10ap_bit_refILi9ELb1EE6lengthEv", metadata !77, i32 1283, metadata !725, i1 false, i1 false, i32 0, i32 0, null, i32 256, i1 false, null, null, i32 0, metadata !89, i32 1283} ; [ DW_TAG_subprogram ]
!725 = metadata !{i32 786453, i32 0, metadata !"", i32 0, i32 0, i64 0, i64 0, i64 0, i32 0, null, metadata !726, i32 0, i32 0} ; [ DW_TAG_subroutine_type ]
!726 = metadata !{metadata !64, metadata !710}
!727 = metadata !{metadata !728, metadata !529}
!728 = metadata !{i32 786480, null, metadata !"_AP_W", metadata !64, i64 9, null, i32 0, i32 0} ; [ DW_TAG_template_value_parameter ]
!729 = metadata !{i32 786478, i32 0, metadata !516, metadata !"operator[]", metadata !"operator[]", metadata !"_ZNK11ap_int_baseILi9ELb1ELb1EEixEi", metadata !77, i32 1949, metadata !654, i1 false, i1 false, i32 0, i32 0, null, i32 256, i1 false, null, null, i32 0, metadata !89, i32 1949} ; [ DW_TAG_subprogram ]
!730 = metadata !{i32 786478, i32 0, metadata !516, metadata !"bit", metadata !"bit", metadata !"_ZN11ap_int_baseILi9ELb1ELb1EE3bitEi", metadata !77, i32 1963, metadata !692, i1 false, i1 false, i32 0, i32 0, null, i32 256, i1 false, null, null, i32 0, metadata !89, i32 1963} ; [ DW_TAG_subprogram ]
!731 = metadata !{i32 786478, i32 0, metadata !516, metadata !"bit", metadata !"bit", metadata !"_ZNK11ap_int_baseILi9ELb1ELb1EE3bitEi", metadata !77, i32 1977, metadata !654, i1 false, i1 false, i32 0, i32 0, null, i32 256, i1 false, null, null, i32 0, metadata !89, i32 1977} ; [ DW_TAG_subprogram ]
!732 = metadata !{i32 786478, i32 0, metadata !516, metadata !"and_reduce", metadata !"and_reduce", metadata !"_ZN11ap_int_baseILi9ELb1ELb1EE10and_reduceEv", metadata !77, i32 2157, metadata !733, i1 false, i1 false, i32 0, i32 0, null, i32 256, i1 false, null, null, i32 0, metadata !89, i32 2157} ; [ DW_TAG_subprogram ]
!733 = metadata !{i32 786453, i32 0, metadata !"", i32 0, i32 0, i64 0, i64 0, i64 0, i32 0, null, metadata !734, i32 0, i32 0} ; [ DW_TAG_subroutine_type ]
!734 = metadata !{metadata !99, metadata !533}
!735 = metadata !{i32 786478, i32 0, metadata !516, metadata !"nand_reduce", metadata !"nand_reduce", metadata !"_ZN11ap_int_baseILi9ELb1ELb1EE11nand_reduceEv", metadata !77, i32 2160, metadata !733, i1 false, i1 false, i32 0, i32 0, null, i32 256, i1 false, null, null, i32 0, metadata !89, i32 2160} ; [ DW_TAG_subprogram ]
!736 = metadata !{i32 786478, i32 0, metadata !516, metadata !"or_reduce", metadata !"or_reduce", metadata !"_ZN11ap_int_baseILi9ELb1ELb1EE9or_reduceEv", metadata !77, i32 2163, metadata !733, i1 false, i1 false, i32 0, i32 0, null, i32 256, i1 false, null, null, i32 0, metadata !89, i32 2163} ; [ DW_TAG_subprogram ]
!737 = metadata !{i32 786478, i32 0, metadata !516, metadata !"nor_reduce", metadata !"nor_reduce", metadata !"_ZN11ap_int_baseILi9ELb1ELb1EE10nor_reduceEv", metadata !77, i32 2166, metadata !733, i1 false, i1 false, i32 0, i32 0, null, i32 256, i1 false, null, null, i32 0, metadata !89, i32 2166} ; [ DW_TAG_subprogram ]
!738 = metadata !{i32 786478, i32 0, metadata !516, metadata !"xor_reduce", metadata !"xor_reduce", metadata !"_ZN11ap_int_baseILi9ELb1ELb1EE10xor_reduceEv", metadata !77, i32 2169, metadata !733, i1 false, i1 false, i32 0, i32 0, null, i32 256, i1 false, null, null, i32 0, metadata !89, i32 2169} ; [ DW_TAG_subprogram ]
!739 = metadata !{i32 786478, i32 0, metadata !516, metadata !"xnor_reduce", metadata !"xnor_reduce", metadata !"_ZN11ap_int_baseILi9ELb1ELb1EE11xnor_reduceEv", metadata !77, i32 2172, metadata !733, i1 false, i1 false, i32 0, i32 0, null, i32 256, i1 false, null, null, i32 0, metadata !89, i32 2172} ; [ DW_TAG_subprogram ]
!740 = metadata !{i32 786478, i32 0, metadata !516, metadata !"and_reduce", metadata !"and_reduce", metadata !"_ZNK11ap_int_baseILi9ELb1ELb1EE10and_reduceEv", metadata !77, i32 2176, metadata !616, i1 false, i1 false, i32 0, i32 0, null, i32 256, i1 false, null, null, i32 0, metadata !89, i32 2176} ; [ DW_TAG_subprogram ]
!741 = metadata !{i32 786478, i32 0, metadata !516, metadata !"nand_reduce", metadata !"nand_reduce", metadata !"_ZNK11ap_int_baseILi9ELb1ELb1EE11nand_reduceEv", metadata !77, i32 2179, metadata !616, i1 false, i1 false, i32 0, i32 0, null, i32 256, i1 false, null, null, i32 0, metadata !89, i32 2179} ; [ DW_TAG_subprogram ]
!742 = metadata !{i32 786478, i32 0, metadata !516, metadata !"or_reduce", metadata !"or_reduce", metadata !"_ZNK11ap_int_baseILi9ELb1ELb1EE9or_reduceEv", metadata !77, i32 2182, metadata !616, i1 false, i1 false, i32 0, i32 0, null, i32 256, i1 false, null, null, i32 0, metadata !89, i32 2182} ; [ DW_TAG_subprogram ]
!743 = metadata !{i32 786478, i32 0, metadata !516, metadata !"nor_reduce", metadata !"nor_reduce", metadata !"_ZNK11ap_int_baseILi9ELb1ELb1EE10nor_reduceEv", metadata !77, i32 2185, metadata !616, i1 false, i1 false, i32 0, i32 0, null, i32 256, i1 false, null, null, i32 0, metadata !89, i32 2185} ; [ DW_TAG_subprogram ]
!744 = metadata !{i32 786478, i32 0, metadata !516, metadata !"xor_reduce", metadata !"xor_reduce", metadata !"_ZNK11ap_int_baseILi9ELb1ELb1EE10xor_reduceEv", metadata !77, i32 2188, metadata !616, i1 false, i1 false, i32 0, i32 0, null, i32 256, i1 false, null, null, i32 0, metadata !89, i32 2188} ; [ DW_TAG_subprogram ]
!745 = metadata !{i32 786478, i32 0, metadata !516, metadata !"xnor_reduce", metadata !"xnor_reduce", metadata !"_ZNK11ap_int_baseILi9ELb1ELb1EE11xnor_reduceEv", metadata !77, i32 2191, metadata !616, i1 false, i1 false, i32 0, i32 0, null, i32 256, i1 false, null, null, i32 0, metadata !89, i32 2191} ; [ DW_TAG_subprogram ]
!746 = metadata !{i32 786478, i32 0, metadata !516, metadata !"to_string", metadata !"to_string", metadata !"_ZNK11ap_int_baseILi9ELb1ELb1EE9to_stringEPci8BaseModeb", metadata !77, i32 2198, metadata !747, i1 false, i1 false, i32 0, i32 0, null, i32 256, i1 false, null, null, i32 0, metadata !89, i32 2198} ; [ DW_TAG_subprogram ]
!747 = metadata !{i32 786453, i32 0, metadata !"", i32 0, i32 0, i64 0, i64 0, i64 0, i32 0, null, metadata !748, i32 0, i32 0} ; [ DW_TAG_subroutine_type ]
!748 = metadata !{null, metadata !613, metadata !309, metadata !64, metadata !310, metadata !99}
!749 = metadata !{i32 786478, i32 0, metadata !516, metadata !"to_string", metadata !"to_string", metadata !"_ZNK11ap_int_baseILi9ELb1ELb1EE9to_stringE8BaseModeb", metadata !77, i32 2225, metadata !750, i1 false, i1 false, i32 0, i32 0, null, i32 256, i1 false, null, null, i32 0, metadata !89, i32 2225} ; [ DW_TAG_subprogram ]
!750 = metadata !{i32 786453, i32 0, metadata !"", i32 0, i32 0, i64 0, i64 0, i64 0, i32 0, null, metadata !751, i32 0, i32 0} ; [ DW_TAG_subroutine_type ]
!751 = metadata !{metadata !309, metadata !613, metadata !310, metadata !99}
!752 = metadata !{i32 786478, i32 0, metadata !516, metadata !"to_string", metadata !"to_string", metadata !"_ZNK11ap_int_baseILi9ELb1ELb1EE9to_stringEab", metadata !77, i32 2229, metadata !753, i1 false, i1 false, i32 0, i32 0, null, i32 256, i1 false, null, null, i32 0, metadata !89, i32 2229} ; [ DW_TAG_subprogram ]
!753 = metadata !{i32 786453, i32 0, metadata !"", i32 0, i32 0, i64 0, i64 0, i64 0, i32 0, null, metadata !754, i32 0, i32 0} ; [ DW_TAG_subroutine_type ]
!754 = metadata !{metadata !309, metadata !613, metadata !118, metadata !99}
!755 = metadata !{i32 786478, i32 0, metadata !347, metadata !"range", metadata !"range", metadata !"_ZN11ap_int_baseILi8ELb0ELb1EE5rangeEii", metadata !77, i32 1898, metadata !756, i1 false, i1 false, i32 0, i32 0, null, i32 256, i1 false, null, null, i32 0, metadata !89, i32 1898} ; [ DW_TAG_subprogram ]
!756 = metadata !{i32 786453, i32 0, metadata !"", i32 0, i32 0, i64 0, i64 0, i64 0, i32 0, null, metadata !757, i32 0, i32 0} ; [ DW_TAG_subroutine_type ]
!757 = metadata !{metadata !758, metadata !363, metadata !64, metadata !64}
!758 = metadata !{i32 786434, null, metadata !"ap_range_ref<8, false>", metadata !77, i32 878, i32 0, i32 0, i32 0, i32 4, null, null, i32 0} ; [ DW_TAG_class_type ]
!759 = metadata !{i32 786478, i32 0, metadata !347, metadata !"operator()", metadata !"operator()", metadata !"_ZN11ap_int_baseILi8ELb0ELb1EEclEii", metadata !77, i32 1904, metadata !756, i1 false, i1 false, i32 0, i32 0, null, i32 256, i1 false, null, null, i32 0, metadata !89, i32 1904} ; [ DW_TAG_subprogram ]
!760 = metadata !{i32 786478, i32 0, metadata !347, metadata !"range", metadata !"range", metadata !"_ZNK11ap_int_baseILi8ELb0ELb1EE5rangeEii", metadata !77, i32 1910, metadata !761, i1 false, i1 false, i32 0, i32 0, null, i32 256, i1 false, null, null, i32 0, metadata !89, i32 1910} ; [ DW_TAG_subprogram ]
!761 = metadata !{i32 786453, i32 0, metadata !"", i32 0, i32 0, i64 0, i64 0, i64 0, i32 0, null, metadata !762, i32 0, i32 0} ; [ DW_TAG_subroutine_type ]
!762 = metadata !{metadata !758, metadata !448, metadata !64, metadata !64}
!763 = metadata !{i32 786478, i32 0, metadata !347, metadata !"operator()", metadata !"operator()", metadata !"_ZNK11ap_int_baseILi8ELb0ELb1EEclEii", metadata !77, i32 1916, metadata !761, i1 false, i1 false, i32 0, i32 0, null, i32 256, i1 false, null, null, i32 0, metadata !89, i32 1916} ; [ DW_TAG_subprogram ]
!764 = metadata !{i32 786478, i32 0, metadata !347, metadata !"operator[]", metadata !"operator[]", metadata !"_ZN11ap_int_baseILi8ELb0ELb1EEixEi", metadata !77, i32 1935, metadata !765, i1 false, i1 false, i32 0, i32 0, null, i32 256, i1 false, null, null, i32 0, metadata !89, i32 1935} ; [ DW_TAG_subprogram ]
!765 = metadata !{i32 786453, i32 0, metadata !"", i32 0, i32 0, i64 0, i64 0, i64 0, i32 0, null, metadata !766, i32 0, i32 0} ; [ DW_TAG_subroutine_type ]
!766 = metadata !{metadata !767, metadata !363, metadata !64}
!767 = metadata !{i32 786434, null, metadata !"ap_bit_ref<8, false>", metadata !77, i32 1124, i32 0, i32 0, i32 0, i32 4, null, null, i32 0} ; [ DW_TAG_class_type ]
!768 = metadata !{i32 786478, i32 0, metadata !347, metadata !"operator[]", metadata !"operator[]", metadata !"_ZNK11ap_int_baseILi8ELb0ELb1EEixEi", metadata !77, i32 1949, metadata !489, i1 false, i1 false, i32 0, i32 0, null, i32 256, i1 false, null, null, i32 0, metadata !89, i32 1949} ; [ DW_TAG_subprogram ]
!769 = metadata !{i32 786478, i32 0, metadata !347, metadata !"bit", metadata !"bit", metadata !"_ZN11ap_int_baseILi8ELb0ELb1EE3bitEi", metadata !77, i32 1963, metadata !765, i1 false, i1 false, i32 0, i32 0, null, i32 256, i1 false, null, null, i32 0, metadata !89, i32 1963} ; [ DW_TAG_subprogram ]
!770 = metadata !{i32 786478, i32 0, metadata !347, metadata !"bit", metadata !"bit", metadata !"_ZNK11ap_int_baseILi8ELb0ELb1EE3bitEi", metadata !77, i32 1977, metadata !489, i1 false, i1 false, i32 0, i32 0, null, i32 256, i1 false, null, null, i32 0, metadata !89, i32 1977} ; [ DW_TAG_subprogram ]
!771 = metadata !{i32 786478, i32 0, metadata !347, metadata !"operator,<32, ap_int_base<32, false, true>, 32, ap_int_base<32, false, true> >", metadata !"operator,<32, ap_int_base<32, false, true>, 32, ap_int_base<32, false, true> >", metadata !"_ZN11ap_int_baseILi8ELb0ELb1EEcmILi32ES_ILi32ELb0ELb1EELi32ES2_EE13ap_concat_refILi8ES0_XplT_T1_ES3_IXT_ET0_XT1_ET2_EERKS6_", metadata !77, i32 2079, metadata !772, i1 false, i1 false, i32 0, i32 0, null, i32 256, i1 false, null, metadata !1773, i32 0, metadata !89, i32 2079} ; [ DW_TAG_subprogram ]
!772 = metadata !{i32 786453, i32 0, metadata !"", i32 0, i32 0, i64 0, i64 0, i64 0, i32 0, null, metadata !773, i32 0, i32 0} ; [ DW_TAG_subroutine_type ]
!773 = metadata !{metadata !343, metadata !363, metadata !774}
!774 = metadata !{i32 786448, null, null, null, i32 0, i64 0, i64 0, i64 0, i32 0, metadata !775} ; [ DW_TAG_reference_type ]
!775 = metadata !{i32 786470, null, metadata !"", null, i32 0, i64 0, i64 0, i64 0, i32 0, metadata !776} ; [ DW_TAG_const_type ]
!776 = metadata !{i32 786434, null, metadata !"ap_concat_ref<32, ap_int_base<32, false, true>, 32, ap_int_base<32, false, true> >", metadata !77, i32 641, i64 128, i64 64, i32 0, i32 0, null, metadata !777, i32 0, null, metadata !1769} ; [ DW_TAG_class_type ]
!777 = metadata !{metadata !778, metadata !1285, metadata !1286, metadata !1291, metadata !1294, metadata !1297, metadata !1300, metadata !1759, metadata !1762, metadata !1763, metadata !1766}
!778 = metadata !{i32 786445, metadata !776, metadata !"mbv1", metadata !77, i32 644, i64 64, i64 64, i64 0, i32 0, metadata !779} ; [ DW_TAG_member ]
!779 = metadata !{i32 786448, null, null, null, i32 0, i64 0, i64 0, i64 0, i32 0, metadata !780} ; [ DW_TAG_reference_type ]
!780 = metadata !{i32 786434, null, metadata !"ap_int_base<32, false, true>", metadata !77, i32 1302, i64 32, i64 32, i32 0, i32 0, null, metadata !781, i32 0, null, metadata !1240} ; [ DW_TAG_class_type ]
!781 = metadata !{metadata !782, metadata !793, metadata !797, metadata !802, metadata !803, metadata !806, metadata !809, metadata !812, metadata !815, metadata !818, metadata !821, metadata !824, metadata !827, metadata !830, metadata !833, metadata !836, metadata !839, metadata !842, metadata !845, metadata !848, metadata !853, metadata !856, metadata !857, metadata !858, metadata !861, metadata !862, metadata !865, metadata !868, metadata !871, metadata !874, metadata !880, metadata !883, metadata !886, metadata !889, metadata !892, metadata !895, metadata !898, metadata !901, metadata !904, metadata !905, metadata !910, metadata !913, metadata !914, metadata !915, metadata !916, metadata !917, metadata !918, metadata !921, metadata !922, metadata !925, metadata !926, metadata !927, metadata !928, metadata !929, metadata !930, metadata !933, metadata !934, metadata !935, metadata !938, metadata !939, metadata !942, metadata !943, metadata !1181, metadata !1242, metadata !1243, metadata !1246, metadata !1247, metadata !1251, metadata !1252, metadata !1253, metadata !1254, metadata !1257, metadata !1260, metadata !1261, metadata !1262, metadata !1265, metadata !1266, metadata !1267, metadata !1268, metadata !1269, metadata !1270, metadata !1271, metadata !1272, metadata !1273, metadata !1274, metadata !1275, metadata !1276, metadata !1279, metadata !1282}
!782 = metadata !{i32 786460, metadata !780, null, metadata !77, i32 0, i64 0, i64 0, i64 0, i32 0, metadata !783} ; [ DW_TAG_inheritance ]
!783 = metadata !{i32 786434, null, metadata !"ssdm_int<32 + 1024 * 0, false>", metadata !81, i32 34, i64 32, i64 32, i32 0, i32 0, null, metadata !784, i32 0, null, metadata !791} ; [ DW_TAG_class_type ]
!784 = metadata !{metadata !785, metadata !787}
!785 = metadata !{i32 786445, metadata !783, metadata !"V", metadata !81, i32 34, i64 32, i64 32, i64 0, i32 0, metadata !786} ; [ DW_TAG_member ]
!786 = metadata !{i32 786468, null, metadata !"uint32", null, i32 0, i64 32, i64 32, i64 0, i32 0, i32 7} ; [ DW_TAG_base_type ]
!787 = metadata !{i32 786478, i32 0, metadata !783, metadata !"ssdm_int", metadata !"ssdm_int", metadata !"", metadata !81, i32 34, metadata !788, i1 false, i1 false, i32 0, i32 0, null, i32 256, i1 false, null, null, i32 0, metadata !89, i32 34} ; [ DW_TAG_subprogram ]
!788 = metadata !{i32 786453, i32 0, metadata !"", i32 0, i32 0, i64 0, i64 0, i64 0, i32 0, null, metadata !789, i32 0, i32 0} ; [ DW_TAG_subroutine_type ]
!789 = metadata !{null, metadata !790}
!790 = metadata !{i32 786447, i32 0, metadata !"", i32 0, i32 0, i64 64, i64 64, i64 0, i32 64, metadata !783} ; [ DW_TAG_pointer_type ]
!791 = metadata !{metadata !792, metadata !98}
!792 = metadata !{i32 786480, null, metadata !"_AP_N", metadata !64, i64 32, null, i32 0, i32 0} ; [ DW_TAG_template_value_parameter ]
!793 = metadata !{i32 786478, i32 0, metadata !780, metadata !"ap_int_base", metadata !"ap_int_base", metadata !"", metadata !77, i32 1340, metadata !794, i1 false, i1 false, i32 0, i32 0, null, i32 256, i1 false, null, null, i32 0, metadata !89, i32 1340} ; [ DW_TAG_subprogram ]
!794 = metadata !{i32 786453, i32 0, metadata !"", i32 0, i32 0, i64 0, i64 0, i64 0, i32 0, null, metadata !795, i32 0, i32 0} ; [ DW_TAG_subroutine_type ]
!795 = metadata !{null, metadata !796}
!796 = metadata !{i32 786447, i32 0, metadata !"", i32 0, i32 0, i64 64, i64 64, i64 0, i32 64, metadata !780} ; [ DW_TAG_pointer_type ]
!797 = metadata !{i32 786478, i32 0, metadata !780, metadata !"ap_int_base<32, false>", metadata !"ap_int_base<32, false>", metadata !"", metadata !77, i32 1352, metadata !798, i1 false, i1 false, i32 0, i32 0, null, i32 256, i1 false, null, metadata !800, i32 0, metadata !89, i32 1352} ; [ DW_TAG_subprogram ]
!798 = metadata !{i32 786453, i32 0, metadata !"", i32 0, i32 0, i64 0, i64 0, i64 0, i32 0, null, metadata !799, i32 0, i32 0} ; [ DW_TAG_subroutine_type ]
!799 = metadata !{null, metadata !796, metadata !779}
!800 = metadata !{metadata !801, metadata !110}
!801 = metadata !{i32 786480, null, metadata !"_AP_W2", metadata !64, i64 32, null, i32 0, i32 0} ; [ DW_TAG_template_value_parameter ]
!802 = metadata !{i32 786478, i32 0, metadata !780, metadata !"ap_int_base<32, false>", metadata !"ap_int_base<32, false>", metadata !"", metadata !77, i32 1355, metadata !798, i1 false, i1 false, i32 0, i32 0, null, i32 256, i1 false, null, metadata !800, i32 0, metadata !89, i32 1355} ; [ DW_TAG_subprogram ]
!803 = metadata !{i32 786478, i32 0, metadata !780, metadata !"ap_int_base", metadata !"ap_int_base", metadata !"", metadata !77, i32 1362, metadata !804, i1 false, i1 false, i32 0, i32 0, null, i32 384, i1 false, null, null, i32 0, metadata !89, i32 1362} ; [ DW_TAG_subprogram ]
!804 = metadata !{i32 786453, i32 0, metadata !"", i32 0, i32 0, i64 0, i64 0, i64 0, i32 0, null, metadata !805, i32 0, i32 0} ; [ DW_TAG_subroutine_type ]
!805 = metadata !{null, metadata !796, metadata !99}
!806 = metadata !{i32 786478, i32 0, metadata !780, metadata !"ap_int_base", metadata !"ap_int_base", metadata !"", metadata !77, i32 1363, metadata !807, i1 false, i1 false, i32 0, i32 0, null, i32 384, i1 false, null, null, i32 0, metadata !89, i32 1363} ; [ DW_TAG_subprogram ]
!807 = metadata !{i32 786453, i32 0, metadata !"", i32 0, i32 0, i64 0, i64 0, i64 0, i32 0, null, metadata !808, i32 0, i32 0} ; [ DW_TAG_subroutine_type ]
!808 = metadata !{null, metadata !796, metadata !118}
!809 = metadata !{i32 786478, i32 0, metadata !780, metadata !"ap_int_base", metadata !"ap_int_base", metadata !"", metadata !77, i32 1364, metadata !810, i1 false, i1 false, i32 0, i32 0, null, i32 384, i1 false, null, null, i32 0, metadata !89, i32 1364} ; [ DW_TAG_subprogram ]
!810 = metadata !{i32 786453, i32 0, metadata !"", i32 0, i32 0, i64 0, i64 0, i64 0, i32 0, null, metadata !811, i32 0, i32 0} ; [ DW_TAG_subroutine_type ]
!811 = metadata !{null, metadata !796, metadata !122}
!812 = metadata !{i32 786478, i32 0, metadata !780, metadata !"ap_int_base", metadata !"ap_int_base", metadata !"", metadata !77, i32 1365, metadata !813, i1 false, i1 false, i32 0, i32 0, null, i32 384, i1 false, null, null, i32 0, metadata !89, i32 1365} ; [ DW_TAG_subprogram ]
!813 = metadata !{i32 786453, i32 0, metadata !"", i32 0, i32 0, i64 0, i64 0, i64 0, i32 0, null, metadata !814, i32 0, i32 0} ; [ DW_TAG_subroutine_type ]
!814 = metadata !{null, metadata !796, metadata !126}
!815 = metadata !{i32 786478, i32 0, metadata !780, metadata !"ap_int_base", metadata !"ap_int_base", metadata !"", metadata !77, i32 1366, metadata !816, i1 false, i1 false, i32 0, i32 0, null, i32 384, i1 false, null, null, i32 0, metadata !89, i32 1366} ; [ DW_TAG_subprogram ]
!816 = metadata !{i32 786453, i32 0, metadata !"", i32 0, i32 0, i64 0, i64 0, i64 0, i32 0, null, metadata !817, i32 0, i32 0} ; [ DW_TAG_subroutine_type ]
!817 = metadata !{null, metadata !796, metadata !130}
!818 = metadata !{i32 786478, i32 0, metadata !780, metadata !"ap_int_base", metadata !"ap_int_base", metadata !"", metadata !77, i32 1367, metadata !819, i1 false, i1 false, i32 0, i32 0, null, i32 384, i1 false, null, null, i32 0, metadata !89, i32 1367} ; [ DW_TAG_subprogram ]
!819 = metadata !{i32 786453, i32 0, metadata !"", i32 0, i32 0, i64 0, i64 0, i64 0, i32 0, null, metadata !820, i32 0, i32 0} ; [ DW_TAG_subroutine_type ]
!820 = metadata !{null, metadata !796, metadata !64}
!821 = metadata !{i32 786478, i32 0, metadata !780, metadata !"ap_int_base", metadata !"ap_int_base", metadata !"", metadata !77, i32 1368, metadata !822, i1 false, i1 false, i32 0, i32 0, null, i32 384, i1 false, null, null, i32 0, metadata !89, i32 1368} ; [ DW_TAG_subprogram ]
!822 = metadata !{i32 786453, i32 0, metadata !"", i32 0, i32 0, i64 0, i64 0, i64 0, i32 0, null, metadata !823, i32 0, i32 0} ; [ DW_TAG_subroutine_type ]
!823 = metadata !{null, metadata !796, metadata !137}
!824 = metadata !{i32 786478, i32 0, metadata !780, metadata !"ap_int_base", metadata !"ap_int_base", metadata !"", metadata !77, i32 1369, metadata !825, i1 false, i1 false, i32 0, i32 0, null, i32 384, i1 false, null, null, i32 0, metadata !89, i32 1369} ; [ DW_TAG_subprogram ]
!825 = metadata !{i32 786453, i32 0, metadata !"", i32 0, i32 0, i64 0, i64 0, i64 0, i32 0, null, metadata !826, i32 0, i32 0} ; [ DW_TAG_subroutine_type ]
!826 = metadata !{null, metadata !796, metadata !141}
!827 = metadata !{i32 786478, i32 0, metadata !780, metadata !"ap_int_base", metadata !"ap_int_base", metadata !"", metadata !77, i32 1370, metadata !828, i1 false, i1 false, i32 0, i32 0, null, i32 384, i1 false, null, null, i32 0, metadata !89, i32 1370} ; [ DW_TAG_subprogram ]
!828 = metadata !{i32 786453, i32 0, metadata !"", i32 0, i32 0, i64 0, i64 0, i64 0, i32 0, null, metadata !829, i32 0, i32 0} ; [ DW_TAG_subroutine_type ]
!829 = metadata !{null, metadata !796, metadata !145}
!830 = metadata !{i32 786478, i32 0, metadata !780, metadata !"ap_int_base", metadata !"ap_int_base", metadata !"", metadata !77, i32 1371, metadata !831, i1 false, i1 false, i32 0, i32 0, null, i32 384, i1 false, null, null, i32 0, metadata !89, i32 1371} ; [ DW_TAG_subprogram ]
!831 = metadata !{i32 786453, i32 0, metadata !"", i32 0, i32 0, i64 0, i64 0, i64 0, i32 0, null, metadata !832, i32 0, i32 0} ; [ DW_TAG_subroutine_type ]
!832 = metadata !{null, metadata !796, metadata !149}
!833 = metadata !{i32 786478, i32 0, metadata !780, metadata !"ap_int_base", metadata !"ap_int_base", metadata !"", metadata !77, i32 1372, metadata !834, i1 false, i1 false, i32 0, i32 0, null, i32 384, i1 false, null, null, i32 0, metadata !89, i32 1372} ; [ DW_TAG_subprogram ]
!834 = metadata !{i32 786453, i32 0, metadata !"", i32 0, i32 0, i64 0, i64 0, i64 0, i32 0, null, metadata !835, i32 0, i32 0} ; [ DW_TAG_subroutine_type ]
!835 = metadata !{null, metadata !796, metadata !154}
!836 = metadata !{i32 786478, i32 0, metadata !780, metadata !"ap_int_base", metadata !"ap_int_base", metadata !"", metadata !77, i32 1373, metadata !837, i1 false, i1 false, i32 0, i32 0, null, i32 384, i1 false, null, null, i32 0, metadata !89, i32 1373} ; [ DW_TAG_subprogram ]
!837 = metadata !{i32 786453, i32 0, metadata !"", i32 0, i32 0, i64 0, i64 0, i64 0, i32 0, null, metadata !838, i32 0, i32 0} ; [ DW_TAG_subroutine_type ]
!838 = metadata !{null, metadata !796, metadata !159}
!839 = metadata !{i32 786478, i32 0, metadata !780, metadata !"ap_int_base", metadata !"ap_int_base", metadata !"", metadata !77, i32 1374, metadata !840, i1 false, i1 false, i32 0, i32 0, null, i32 384, i1 false, null, null, i32 0, metadata !89, i32 1374} ; [ DW_TAG_subprogram ]
!840 = metadata !{i32 786453, i32 0, metadata !"", i32 0, i32 0, i64 0, i64 0, i64 0, i32 0, null, metadata !841, i32 0, i32 0} ; [ DW_TAG_subroutine_type ]
!841 = metadata !{null, metadata !796, metadata !163}
!842 = metadata !{i32 786478, i32 0, metadata !780, metadata !"ap_int_base", metadata !"ap_int_base", metadata !"", metadata !77, i32 1401, metadata !843, i1 false, i1 false, i32 0, i32 0, null, i32 256, i1 false, null, null, i32 0, metadata !89, i32 1401} ; [ DW_TAG_subprogram ]
!843 = metadata !{i32 786453, i32 0, metadata !"", i32 0, i32 0, i64 0, i64 0, i64 0, i32 0, null, metadata !844, i32 0, i32 0} ; [ DW_TAG_subroutine_type ]
!844 = metadata !{null, metadata !796, metadata !167}
!845 = metadata !{i32 786478, i32 0, metadata !780, metadata !"ap_int_base", metadata !"ap_int_base", metadata !"", metadata !77, i32 1408, metadata !846, i1 false, i1 false, i32 0, i32 0, null, i32 256, i1 false, null, null, i32 0, metadata !89, i32 1408} ; [ DW_TAG_subprogram ]
!846 = metadata !{i32 786453, i32 0, metadata !"", i32 0, i32 0, i64 0, i64 0, i64 0, i32 0, null, metadata !847, i32 0, i32 0} ; [ DW_TAG_subroutine_type ]
!847 = metadata !{null, metadata !796, metadata !167, metadata !118}
!848 = metadata !{i32 786478, i32 0, metadata !780, metadata !"read", metadata !"read", metadata !"_ZNV11ap_int_baseILi32ELb0ELb1EE4readEv", metadata !77, i32 1429, metadata !849, i1 false, i1 false, i32 0, i32 0, null, i32 256, i1 false, null, null, i32 0, metadata !89, i32 1429} ; [ DW_TAG_subprogram ]
!849 = metadata !{i32 786453, i32 0, metadata !"", i32 0, i32 0, i64 0, i64 0, i64 0, i32 0, null, metadata !850, i32 0, i32 0} ; [ DW_TAG_subroutine_type ]
!850 = metadata !{metadata !780, metadata !851}
!851 = metadata !{i32 786447, i32 0, metadata !"", i32 0, i32 0, i64 64, i64 64, i64 0, i32 64, metadata !852} ; [ DW_TAG_pointer_type ]
!852 = metadata !{i32 786485, null, metadata !"", null, i32 0, i64 0, i64 0, i64 0, i32 0, metadata !780} ; [ DW_TAG_volatile_type ]
!853 = metadata !{i32 786478, i32 0, metadata !780, metadata !"write", metadata !"write", metadata !"_ZNV11ap_int_baseILi32ELb0ELb1EE5writeERKS0_", metadata !77, i32 1435, metadata !854, i1 false, i1 false, i32 0, i32 0, null, i32 256, i1 false, null, null, i32 0, metadata !89, i32 1435} ; [ DW_TAG_subprogram ]
!854 = metadata !{i32 786453, i32 0, metadata !"", i32 0, i32 0, i64 0, i64 0, i64 0, i32 0, null, metadata !855, i32 0, i32 0} ; [ DW_TAG_subroutine_type ]
!855 = metadata !{null, metadata !851, metadata !779}
!856 = metadata !{i32 786478, i32 0, metadata !780, metadata !"operator=", metadata !"operator=", metadata !"_ZNV11ap_int_baseILi32ELb0ELb1EEaSERVKS0_", metadata !77, i32 1447, metadata !854, i1 false, i1 false, i32 0, i32 0, null, i32 256, i1 false, null, null, i32 0, metadata !89, i32 1447} ; [ DW_TAG_subprogram ]
!857 = metadata !{i32 786478, i32 0, metadata !780, metadata !"operator=", metadata !"operator=", metadata !"_ZNV11ap_int_baseILi32ELb0ELb1EEaSERKS0_", metadata !77, i32 1456, metadata !854, i1 false, i1 false, i32 0, i32 0, null, i32 256, i1 false, null, null, i32 0, metadata !89, i32 1456} ; [ DW_TAG_subprogram ]
!858 = metadata !{i32 786478, i32 0, metadata !780, metadata !"operator=", metadata !"operator=", metadata !"_ZN11ap_int_baseILi32ELb0ELb1EEaSERVKS0_", metadata !77, i32 1479, metadata !859, i1 false, i1 false, i32 0, i32 0, null, i32 256, i1 false, null, null, i32 0, metadata !89, i32 1479} ; [ DW_TAG_subprogram ]
!859 = metadata !{i32 786453, i32 0, metadata !"", i32 0, i32 0, i64 0, i64 0, i64 0, i32 0, null, metadata !860, i32 0, i32 0} ; [ DW_TAG_subroutine_type ]
!860 = metadata !{metadata !779, metadata !796, metadata !779}
!861 = metadata !{i32 786478, i32 0, metadata !780, metadata !"operator=", metadata !"operator=", metadata !"_ZN11ap_int_baseILi32ELb0ELb1EEaSERKS0_", metadata !77, i32 1484, metadata !859, i1 false, i1 false, i32 0, i32 0, null, i32 256, i1 false, null, null, i32 0, metadata !89, i32 1484} ; [ DW_TAG_subprogram ]
!862 = metadata !{i32 786478, i32 0, metadata !780, metadata !"operator=", metadata !"operator=", metadata !"_ZN11ap_int_baseILi32ELb0ELb1EEaSEPKc", metadata !77, i32 1488, metadata !863, i1 false, i1 false, i32 0, i32 0, null, i32 256, i1 false, null, null, i32 0, metadata !89, i32 1488} ; [ DW_TAG_subprogram ]
!863 = metadata !{i32 786453, i32 0, metadata !"", i32 0, i32 0, i64 0, i64 0, i64 0, i32 0, null, metadata !864, i32 0, i32 0} ; [ DW_TAG_subroutine_type ]
!864 = metadata !{metadata !779, metadata !796, metadata !167}
!865 = metadata !{i32 786478, i32 0, metadata !780, metadata !"set", metadata !"set", metadata !"_ZN11ap_int_baseILi32ELb0ELb1EE3setEPKca", metadata !77, i32 1496, metadata !866, i1 false, i1 false, i32 0, i32 0, null, i32 256, i1 false, null, null, i32 0, metadata !89, i32 1496} ; [ DW_TAG_subprogram ]
!866 = metadata !{i32 786453, i32 0, metadata !"", i32 0, i32 0, i64 0, i64 0, i64 0, i32 0, null, metadata !867, i32 0, i32 0} ; [ DW_TAG_subroutine_type ]
!867 = metadata !{metadata !779, metadata !796, metadata !167, metadata !118}
!868 = metadata !{i32 786478, i32 0, metadata !780, metadata !"operator=", metadata !"operator=", metadata !"_ZN11ap_int_baseILi32ELb0ELb1EEaSEy", metadata !77, i32 1505, metadata !869, i1 false, i1 false, i32 0, i32 0, null, i32 256, i1 false, null, null, i32 0, metadata !89, i32 1505} ; [ DW_TAG_subprogram ]
!869 = metadata !{i32 786453, i32 0, metadata !"", i32 0, i32 0, i64 0, i64 0, i64 0, i32 0, null, metadata !870, i32 0, i32 0} ; [ DW_TAG_subroutine_type ]
!870 = metadata !{metadata !779, metadata !796, metadata !155}
!871 = metadata !{i32 786478, i32 0, metadata !780, metadata !"operator=", metadata !"operator=", metadata !"_ZN11ap_int_baseILi32ELb0ELb1EEaSEx", metadata !77, i32 1510, metadata !872, i1 false, i1 false, i32 0, i32 0, null, i32 256, i1 false, null, null, i32 0, metadata !89, i32 1510} ; [ DW_TAG_subprogram ]
!872 = metadata !{i32 786453, i32 0, metadata !"", i32 0, i32 0, i64 0, i64 0, i64 0, i32 0, null, metadata !873, i32 0, i32 0} ; [ DW_TAG_subroutine_type ]
!873 = metadata !{metadata !779, metadata !796, metadata !150}
!874 = metadata !{i32 786478, i32 0, metadata !780, metadata !"operator unsigned long long", metadata !"operator unsigned long long", metadata !"_ZNK11ap_int_baseILi32ELb0ELb1EEcvyEv", metadata !77, i32 1551, metadata !875, i1 false, i1 false, i32 0, i32 0, null, i32 256, i1 false, null, null, i32 0, metadata !89, i32 1551} ; [ DW_TAG_subprogram ]
!875 = metadata !{i32 786453, i32 0, metadata !"", i32 0, i32 0, i64 0, i64 0, i64 0, i32 0, null, metadata !876, i32 0, i32 0} ; [ DW_TAG_subroutine_type ]
!876 = metadata !{metadata !877, metadata !878}
!877 = metadata !{i32 786454, metadata !780, metadata !"RetType", metadata !77, i32 1307, i64 0, i64 0, i64 0, i32 0, metadata !445} ; [ DW_TAG_typedef ]
!878 = metadata !{i32 786447, i32 0, metadata !"", i32 0, i32 0, i64 64, i64 64, i64 0, i32 64, metadata !879} ; [ DW_TAG_pointer_type ]
!879 = metadata !{i32 786470, null, metadata !"", null, i32 0, i64 0, i64 0, i64 0, i32 0, metadata !780} ; [ DW_TAG_const_type ]
!880 = metadata !{i32 786478, i32 0, metadata !780, metadata !"to_bool", metadata !"to_bool", metadata !"_ZNK11ap_int_baseILi32ELb0ELb1EE7to_boolEv", metadata !77, i32 1557, metadata !881, i1 false, i1 false, i32 0, i32 0, null, i32 256, i1 false, null, null, i32 0, metadata !89, i32 1557} ; [ DW_TAG_subprogram ]
!881 = metadata !{i32 786453, i32 0, metadata !"", i32 0, i32 0, i64 0, i64 0, i64 0, i32 0, null, metadata !882, i32 0, i32 0} ; [ DW_TAG_subroutine_type ]
!882 = metadata !{metadata !99, metadata !878}
!883 = metadata !{i32 786478, i32 0, metadata !780, metadata !"to_int", metadata !"to_int", metadata !"_ZNK11ap_int_baseILi32ELb0ELb1EE6to_intEv", metadata !77, i32 1558, metadata !884, i1 false, i1 false, i32 0, i32 0, null, i32 256, i1 false, null, null, i32 0, metadata !89, i32 1558} ; [ DW_TAG_subprogram ]
!884 = metadata !{i32 786453, i32 0, metadata !"", i32 0, i32 0, i64 0, i64 0, i64 0, i32 0, null, metadata !885, i32 0, i32 0} ; [ DW_TAG_subroutine_type ]
!885 = metadata !{metadata !64, metadata !878}
!886 = metadata !{i32 786478, i32 0, metadata !780, metadata !"to_uint", metadata !"to_uint", metadata !"_ZNK11ap_int_baseILi32ELb0ELb1EE7to_uintEv", metadata !77, i32 1559, metadata !887, i1 false, i1 false, i32 0, i32 0, null, i32 256, i1 false, null, null, i32 0, metadata !89, i32 1559} ; [ DW_TAG_subprogram ]
!887 = metadata !{i32 786453, i32 0, metadata !"", i32 0, i32 0, i64 0, i64 0, i64 0, i32 0, null, metadata !888, i32 0, i32 0} ; [ DW_TAG_subroutine_type ]
!888 = metadata !{metadata !137, metadata !878}
!889 = metadata !{i32 786478, i32 0, metadata !780, metadata !"to_long", metadata !"to_long", metadata !"_ZNK11ap_int_baseILi32ELb0ELb1EE7to_longEv", metadata !77, i32 1560, metadata !890, i1 false, i1 false, i32 0, i32 0, null, i32 256, i1 false, null, null, i32 0, metadata !89, i32 1560} ; [ DW_TAG_subprogram ]
!890 = metadata !{i32 786453, i32 0, metadata !"", i32 0, i32 0, i64 0, i64 0, i64 0, i32 0, null, metadata !891, i32 0, i32 0} ; [ DW_TAG_subroutine_type ]
!891 = metadata !{metadata !141, metadata !878}
!892 = metadata !{i32 786478, i32 0, metadata !780, metadata !"to_ulong", metadata !"to_ulong", metadata !"_ZNK11ap_int_baseILi32ELb0ELb1EE8to_ulongEv", metadata !77, i32 1561, metadata !893, i1 false, i1 false, i32 0, i32 0, null, i32 256, i1 false, null, null, i32 0, metadata !89, i32 1561} ; [ DW_TAG_subprogram ]
!893 = metadata !{i32 786453, i32 0, metadata !"", i32 0, i32 0, i64 0, i64 0, i64 0, i32 0, null, metadata !894, i32 0, i32 0} ; [ DW_TAG_subroutine_type ]
!894 = metadata !{metadata !145, metadata !878}
!895 = metadata !{i32 786478, i32 0, metadata !780, metadata !"to_int64", metadata !"to_int64", metadata !"_ZNK11ap_int_baseILi32ELb0ELb1EE8to_int64Ev", metadata !77, i32 1562, metadata !896, i1 false, i1 false, i32 0, i32 0, null, i32 256, i1 false, null, null, i32 0, metadata !89, i32 1562} ; [ DW_TAG_subprogram ]
!896 = metadata !{i32 786453, i32 0, metadata !"", i32 0, i32 0, i64 0, i64 0, i64 0, i32 0, null, metadata !897, i32 0, i32 0} ; [ DW_TAG_subroutine_type ]
!897 = metadata !{metadata !149, metadata !878}
!898 = metadata !{i32 786478, i32 0, metadata !780, metadata !"to_uint64", metadata !"to_uint64", metadata !"_ZNK11ap_int_baseILi32ELb0ELb1EE9to_uint64Ev", metadata !77, i32 1563, metadata !899, i1 false, i1 false, i32 0, i32 0, null, i32 256, i1 false, null, null, i32 0, metadata !89, i32 1563} ; [ DW_TAG_subprogram ]
!899 = metadata !{i32 786453, i32 0, metadata !"", i32 0, i32 0, i64 0, i64 0, i64 0, i32 0, null, metadata !900, i32 0, i32 0} ; [ DW_TAG_subroutine_type ]
!900 = metadata !{metadata !154, metadata !878}
!901 = metadata !{i32 786478, i32 0, metadata !780, metadata !"to_double", metadata !"to_double", metadata !"_ZNK11ap_int_baseILi32ELb0ELb1EE9to_doubleEv", metadata !77, i32 1564, metadata !902, i1 false, i1 false, i32 0, i32 0, null, i32 256, i1 false, null, null, i32 0, metadata !89, i32 1564} ; [ DW_TAG_subprogram ]
!902 = metadata !{i32 786453, i32 0, metadata !"", i32 0, i32 0, i64 0, i64 0, i64 0, i32 0, null, metadata !903, i32 0, i32 0} ; [ DW_TAG_subroutine_type ]
!903 = metadata !{metadata !163, metadata !878}
!904 = metadata !{i32 786478, i32 0, metadata !780, metadata !"length", metadata !"length", metadata !"_ZNK11ap_int_baseILi32ELb0ELb1EE6lengthEv", metadata !77, i32 1577, metadata !884, i1 false, i1 false, i32 0, i32 0, null, i32 256, i1 false, null, null, i32 0, metadata !89, i32 1577} ; [ DW_TAG_subprogram ]
!905 = metadata !{i32 786478, i32 0, metadata !780, metadata !"length", metadata !"length", metadata !"_ZNVK11ap_int_baseILi32ELb0ELb1EE6lengthEv", metadata !77, i32 1578, metadata !906, i1 false, i1 false, i32 0, i32 0, null, i32 256, i1 false, null, null, i32 0, metadata !89, i32 1578} ; [ DW_TAG_subprogram ]
!906 = metadata !{i32 786453, i32 0, metadata !"", i32 0, i32 0, i64 0, i64 0, i64 0, i32 0, null, metadata !907, i32 0, i32 0} ; [ DW_TAG_subroutine_type ]
!907 = metadata !{metadata !64, metadata !908}
!908 = metadata !{i32 786447, i32 0, metadata !"", i32 0, i32 0, i64 64, i64 64, i64 0, i32 64, metadata !909} ; [ DW_TAG_pointer_type ]
!909 = metadata !{i32 786470, null, metadata !"", null, i32 0, i64 0, i64 0, i64 0, i32 0, metadata !852} ; [ DW_TAG_const_type ]
!910 = metadata !{i32 786478, i32 0, metadata !780, metadata !"reverse", metadata !"reverse", metadata !"_ZN11ap_int_baseILi32ELb0ELb1EE7reverseEv", metadata !77, i32 1583, metadata !911, i1 false, i1 false, i32 0, i32 0, null, i32 256, i1 false, null, null, i32 0, metadata !89, i32 1583} ; [ DW_TAG_subprogram ]
!911 = metadata !{i32 786453, i32 0, metadata !"", i32 0, i32 0, i64 0, i64 0, i64 0, i32 0, null, metadata !912, i32 0, i32 0} ; [ DW_TAG_subroutine_type ]
!912 = metadata !{metadata !779, metadata !796}
!913 = metadata !{i32 786478, i32 0, metadata !780, metadata !"iszero", metadata !"iszero", metadata !"_ZNK11ap_int_baseILi32ELb0ELb1EE6iszeroEv", metadata !77, i32 1589, metadata !881, i1 false, i1 false, i32 0, i32 0, null, i32 256, i1 false, null, null, i32 0, metadata !89, i32 1589} ; [ DW_TAG_subprogram ]
!914 = metadata !{i32 786478, i32 0, metadata !780, metadata !"is_zero", metadata !"is_zero", metadata !"_ZNK11ap_int_baseILi32ELb0ELb1EE7is_zeroEv", metadata !77, i32 1594, metadata !881, i1 false, i1 false, i32 0, i32 0, null, i32 256, i1 false, null, null, i32 0, metadata !89, i32 1594} ; [ DW_TAG_subprogram ]
!915 = metadata !{i32 786478, i32 0, metadata !780, metadata !"sign", metadata !"sign", metadata !"_ZNK11ap_int_baseILi32ELb0ELb1EE4signEv", metadata !77, i32 1599, metadata !881, i1 false, i1 false, i32 0, i32 0, null, i32 256, i1 false, null, null, i32 0, metadata !89, i32 1599} ; [ DW_TAG_subprogram ]
!916 = metadata !{i32 786478, i32 0, metadata !780, metadata !"clear", metadata !"clear", metadata !"_ZN11ap_int_baseILi32ELb0ELb1EE5clearEi", metadata !77, i32 1607, metadata !819, i1 false, i1 false, i32 0, i32 0, null, i32 256, i1 false, null, null, i32 0, metadata !89, i32 1607} ; [ DW_TAG_subprogram ]
!917 = metadata !{i32 786478, i32 0, metadata !780, metadata !"invert", metadata !"invert", metadata !"_ZN11ap_int_baseILi32ELb0ELb1EE6invertEi", metadata !77, i32 1613, metadata !819, i1 false, i1 false, i32 0, i32 0, null, i32 256, i1 false, null, null, i32 0, metadata !89, i32 1613} ; [ DW_TAG_subprogram ]
!918 = metadata !{i32 786478, i32 0, metadata !780, metadata !"test", metadata !"test", metadata !"_ZNK11ap_int_baseILi32ELb0ELb1EE4testEi", metadata !77, i32 1621, metadata !919, i1 false, i1 false, i32 0, i32 0, null, i32 256, i1 false, null, null, i32 0, metadata !89, i32 1621} ; [ DW_TAG_subprogram ]
!919 = metadata !{i32 786453, i32 0, metadata !"", i32 0, i32 0, i64 0, i64 0, i64 0, i32 0, null, metadata !920, i32 0, i32 0} ; [ DW_TAG_subroutine_type ]
!920 = metadata !{metadata !99, metadata !878, metadata !64}
!921 = metadata !{i32 786478, i32 0, metadata !780, metadata !"set", metadata !"set", metadata !"_ZN11ap_int_baseILi32ELb0ELb1EE3setEi", metadata !77, i32 1627, metadata !819, i1 false, i1 false, i32 0, i32 0, null, i32 256, i1 false, null, null, i32 0, metadata !89, i32 1627} ; [ DW_TAG_subprogram ]
!922 = metadata !{i32 786478, i32 0, metadata !780, metadata !"set", metadata !"set", metadata !"_ZN11ap_int_baseILi32ELb0ELb1EE3setEib", metadata !77, i32 1633, metadata !923, i1 false, i1 false, i32 0, i32 0, null, i32 256, i1 false, null, null, i32 0, metadata !89, i32 1633} ; [ DW_TAG_subprogram ]
!923 = metadata !{i32 786453, i32 0, metadata !"", i32 0, i32 0, i64 0, i64 0, i64 0, i32 0, null, metadata !924, i32 0, i32 0} ; [ DW_TAG_subroutine_type ]
!924 = metadata !{null, metadata !796, metadata !64, metadata !99}
!925 = metadata !{i32 786478, i32 0, metadata !780, metadata !"lrotate", metadata !"lrotate", metadata !"_ZN11ap_int_baseILi32ELb0ELb1EE7lrotateEi", metadata !77, i32 1640, metadata !819, i1 false, i1 false, i32 0, i32 0, null, i32 256, i1 false, null, null, i32 0, metadata !89, i32 1640} ; [ DW_TAG_subprogram ]
!926 = metadata !{i32 786478, i32 0, metadata !780, metadata !"rrotate", metadata !"rrotate", metadata !"_ZN11ap_int_baseILi32ELb0ELb1EE7rrotateEi", metadata !77, i32 1649, metadata !819, i1 false, i1 false, i32 0, i32 0, null, i32 256, i1 false, null, null, i32 0, metadata !89, i32 1649} ; [ DW_TAG_subprogram ]
!927 = metadata !{i32 786478, i32 0, metadata !780, metadata !"set_bit", metadata !"set_bit", metadata !"_ZN11ap_int_baseILi32ELb0ELb1EE7set_bitEib", metadata !77, i32 1657, metadata !923, i1 false, i1 false, i32 0, i32 0, null, i32 256, i1 false, null, null, i32 0, metadata !89, i32 1657} ; [ DW_TAG_subprogram ]
!928 = metadata !{i32 786478, i32 0, metadata !780, metadata !"get_bit", metadata !"get_bit", metadata !"_ZNK11ap_int_baseILi32ELb0ELb1EE7get_bitEi", metadata !77, i32 1662, metadata !919, i1 false, i1 false, i32 0, i32 0, null, i32 256, i1 false, null, null, i32 0, metadata !89, i32 1662} ; [ DW_TAG_subprogram ]
!929 = metadata !{i32 786478, i32 0, metadata !780, metadata !"b_not", metadata !"b_not", metadata !"_ZN11ap_int_baseILi32ELb0ELb1EE5b_notEv", metadata !77, i32 1667, metadata !794, i1 false, i1 false, i32 0, i32 0, null, i32 256, i1 false, null, null, i32 0, metadata !89, i32 1667} ; [ DW_TAG_subprogram ]
!930 = metadata !{i32 786478, i32 0, metadata !780, metadata !"countLeadingZeros", metadata !"countLeadingZeros", metadata !"_ZN11ap_int_baseILi32ELb0ELb1EE17countLeadingZerosEv", metadata !77, i32 1674, metadata !931, i1 false, i1 false, i32 0, i32 0, null, i32 256, i1 false, null, null, i32 0, metadata !89, i32 1674} ; [ DW_TAG_subprogram ]
!931 = metadata !{i32 786453, i32 0, metadata !"", i32 0, i32 0, i64 0, i64 0, i64 0, i32 0, null, metadata !932, i32 0, i32 0} ; [ DW_TAG_subroutine_type ]
!932 = metadata !{metadata !64, metadata !796}
!933 = metadata !{i32 786478, i32 0, metadata !780, metadata !"operator++", metadata !"operator++", metadata !"_ZN11ap_int_baseILi32ELb0ELb1EEppEv", metadata !77, i32 1731, metadata !911, i1 false, i1 false, i32 0, i32 0, null, i32 256, i1 false, null, null, i32 0, metadata !89, i32 1731} ; [ DW_TAG_subprogram ]
!934 = metadata !{i32 786478, i32 0, metadata !780, metadata !"operator--", metadata !"operator--", metadata !"_ZN11ap_int_baseILi32ELb0ELb1EEmmEv", metadata !77, i32 1735, metadata !911, i1 false, i1 false, i32 0, i32 0, null, i32 256, i1 false, null, null, i32 0, metadata !89, i32 1735} ; [ DW_TAG_subprogram ]
!935 = metadata !{i32 786478, i32 0, metadata !780, metadata !"operator++", metadata !"operator++", metadata !"_ZN11ap_int_baseILi32ELb0ELb1EEppEi", metadata !77, i32 1743, metadata !936, i1 false, i1 false, i32 0, i32 0, null, i32 256, i1 false, null, null, i32 0, metadata !89, i32 1743} ; [ DW_TAG_subprogram ]
!936 = metadata !{i32 786453, i32 0, metadata !"", i32 0, i32 0, i64 0, i64 0, i64 0, i32 0, null, metadata !937, i32 0, i32 0} ; [ DW_TAG_subroutine_type ]
!937 = metadata !{metadata !879, metadata !796, metadata !64}
!938 = metadata !{i32 786478, i32 0, metadata !780, metadata !"operator--", metadata !"operator--", metadata !"_ZN11ap_int_baseILi32ELb0ELb1EEmmEi", metadata !77, i32 1748, metadata !936, i1 false, i1 false, i32 0, i32 0, null, i32 256, i1 false, null, null, i32 0, metadata !89, i32 1748} ; [ DW_TAG_subprogram ]
!939 = metadata !{i32 786478, i32 0, metadata !780, metadata !"operator+", metadata !"operator+", metadata !"_ZNK11ap_int_baseILi32ELb0ELb1EEpsEv", metadata !77, i32 1757, metadata !940, i1 false, i1 false, i32 0, i32 0, null, i32 256, i1 false, null, null, i32 0, metadata !89, i32 1757} ; [ DW_TAG_subprogram ]
!940 = metadata !{i32 786453, i32 0, metadata !"", i32 0, i32 0, i64 0, i64 0, i64 0, i32 0, null, metadata !941, i32 0, i32 0} ; [ DW_TAG_subroutine_type ]
!941 = metadata !{metadata !780, metadata !878}
!942 = metadata !{i32 786478, i32 0, metadata !780, metadata !"operator!", metadata !"operator!", metadata !"_ZNK11ap_int_baseILi32ELb0ELb1EEntEv", metadata !77, i32 1763, metadata !881, i1 false, i1 false, i32 0, i32 0, null, i32 256, i1 false, null, null, i32 0, metadata !89, i32 1763} ; [ DW_TAG_subprogram ]
!943 = metadata !{i32 786478, i32 0, metadata !780, metadata !"operator-", metadata !"operator-", metadata !"_ZNK11ap_int_baseILi32ELb0ELb1EEngEv", metadata !77, i32 1768, metadata !944, i1 false, i1 false, i32 0, i32 0, null, i32 256, i1 false, null, null, i32 0, metadata !89, i32 1768} ; [ DW_TAG_subprogram ]
!944 = metadata !{i32 786453, i32 0, metadata !"", i32 0, i32 0, i64 0, i64 0, i64 0, i32 0, null, metadata !945, i32 0, i32 0} ; [ DW_TAG_subroutine_type ]
!945 = metadata !{metadata !946, metadata !878}
!946 = metadata !{i32 786434, null, metadata !"ap_int_base<33, true, true>", metadata !77, i32 1302, i64 64, i64 64, i32 0, i32 0, null, metadata !947, i32 0, null, metadata !1153} ; [ DW_TAG_class_type ]
!947 = metadata !{metadata !948, metadata !959, metadata !963, metadata !966, metadata !969, metadata !972, metadata !975, metadata !978, metadata !981, metadata !984, metadata !987, metadata !990, metadata !993, metadata !996, metadata !999, metadata !1002, metadata !1005, metadata !1008, metadata !1013, metadata !1017, metadata !1018, metadata !1019, metadata !1022, metadata !1023, metadata !1026, metadata !1029, metadata !1032, metadata !1035, metadata !1041, metadata !1044, metadata !1047, metadata !1050, metadata !1053, metadata !1056, metadata !1059, metadata !1062, metadata !1065, metadata !1066, metadata !1071, metadata !1074, metadata !1075, metadata !1076, metadata !1077, metadata !1078, metadata !1079, metadata !1082, metadata !1083, metadata !1086, metadata !1087, metadata !1088, metadata !1089, metadata !1090, metadata !1091, metadata !1094, metadata !1095, metadata !1096, metadata !1099, metadata !1100, metadata !1103, metadata !1104, metadata !1108, metadata !1112, metadata !1113, metadata !1116, metadata !1117, metadata !1155, metadata !1156, metadata !1157, metadata !1158, metadata !1161, metadata !1162, metadata !1163, metadata !1164, metadata !1165, metadata !1166, metadata !1167, metadata !1168, metadata !1169, metadata !1170, metadata !1171, metadata !1172, metadata !1175, metadata !1178}
!948 = metadata !{i32 786460, metadata !946, null, metadata !77, i32 0, i64 0, i64 0, i64 0, i32 0, metadata !949} ; [ DW_TAG_inheritance ]
!949 = metadata !{i32 786434, null, metadata !"ssdm_int<33 + 1024 * 0, true>", metadata !81, i32 35, i64 64, i64 64, i32 0, i32 0, null, metadata !950, i32 0, null, metadata !957} ; [ DW_TAG_class_type ]
!950 = metadata !{metadata !951, metadata !953}
!951 = metadata !{i32 786445, metadata !949, metadata !"V", metadata !81, i32 35, i64 33, i64 64, i64 0, i32 0, metadata !952} ; [ DW_TAG_member ]
!952 = metadata !{i32 786468, null, metadata !"int33", null, i32 0, i64 33, i64 64, i64 0, i32 0, i32 5} ; [ DW_TAG_base_type ]
!953 = metadata !{i32 786478, i32 0, metadata !949, metadata !"ssdm_int", metadata !"ssdm_int", metadata !"", metadata !81, i32 35, metadata !954, i1 false, i1 false, i32 0, i32 0, null, i32 256, i1 false, null, null, i32 0, metadata !89, i32 35} ; [ DW_TAG_subprogram ]
!954 = metadata !{i32 786453, i32 0, metadata !"", i32 0, i32 0, i64 0, i64 0, i64 0, i32 0, null, metadata !955, i32 0, i32 0} ; [ DW_TAG_subroutine_type ]
!955 = metadata !{null, metadata !956}
!956 = metadata !{i32 786447, i32 0, metadata !"", i32 0, i32 0, i64 64, i64 64, i64 0, i32 64, metadata !949} ; [ DW_TAG_pointer_type ]
!957 = metadata !{metadata !958, metadata !529}
!958 = metadata !{i32 786480, null, metadata !"_AP_N", metadata !64, i64 33, null, i32 0, i32 0} ; [ DW_TAG_template_value_parameter ]
!959 = metadata !{i32 786478, i32 0, metadata !946, metadata !"ap_int_base", metadata !"ap_int_base", metadata !"", metadata !77, i32 1340, metadata !960, i1 false, i1 false, i32 0, i32 0, null, i32 256, i1 false, null, null, i32 0, metadata !89, i32 1340} ; [ DW_TAG_subprogram ]
!960 = metadata !{i32 786453, i32 0, metadata !"", i32 0, i32 0, i64 0, i64 0, i64 0, i32 0, null, metadata !961, i32 0, i32 0} ; [ DW_TAG_subroutine_type ]
!961 = metadata !{null, metadata !962}
!962 = metadata !{i32 786447, i32 0, metadata !"", i32 0, i32 0, i64 64, i64 64, i64 0, i32 64, metadata !946} ; [ DW_TAG_pointer_type ]
!963 = metadata !{i32 786478, i32 0, metadata !946, metadata !"ap_int_base", metadata !"ap_int_base", metadata !"", metadata !77, i32 1362, metadata !964, i1 false, i1 false, i32 0, i32 0, null, i32 384, i1 false, null, null, i32 0, metadata !89, i32 1362} ; [ DW_TAG_subprogram ]
!964 = metadata !{i32 786453, i32 0, metadata !"", i32 0, i32 0, i64 0, i64 0, i64 0, i32 0, null, metadata !965, i32 0, i32 0} ; [ DW_TAG_subroutine_type ]
!965 = metadata !{null, metadata !962, metadata !99}
!966 = metadata !{i32 786478, i32 0, metadata !946, metadata !"ap_int_base", metadata !"ap_int_base", metadata !"", metadata !77, i32 1363, metadata !967, i1 false, i1 false, i32 0, i32 0, null, i32 384, i1 false, null, null, i32 0, metadata !89, i32 1363} ; [ DW_TAG_subprogram ]
!967 = metadata !{i32 786453, i32 0, metadata !"", i32 0, i32 0, i64 0, i64 0, i64 0, i32 0, null, metadata !968, i32 0, i32 0} ; [ DW_TAG_subroutine_type ]
!968 = metadata !{null, metadata !962, metadata !118}
!969 = metadata !{i32 786478, i32 0, metadata !946, metadata !"ap_int_base", metadata !"ap_int_base", metadata !"", metadata !77, i32 1364, metadata !970, i1 false, i1 false, i32 0, i32 0, null, i32 384, i1 false, null, null, i32 0, metadata !89, i32 1364} ; [ DW_TAG_subprogram ]
!970 = metadata !{i32 786453, i32 0, metadata !"", i32 0, i32 0, i64 0, i64 0, i64 0, i32 0, null, metadata !971, i32 0, i32 0} ; [ DW_TAG_subroutine_type ]
!971 = metadata !{null, metadata !962, metadata !122}
!972 = metadata !{i32 786478, i32 0, metadata !946, metadata !"ap_int_base", metadata !"ap_int_base", metadata !"", metadata !77, i32 1365, metadata !973, i1 false, i1 false, i32 0, i32 0, null, i32 384, i1 false, null, null, i32 0, metadata !89, i32 1365} ; [ DW_TAG_subprogram ]
!973 = metadata !{i32 786453, i32 0, metadata !"", i32 0, i32 0, i64 0, i64 0, i64 0, i32 0, null, metadata !974, i32 0, i32 0} ; [ DW_TAG_subroutine_type ]
!974 = metadata !{null, metadata !962, metadata !126}
!975 = metadata !{i32 786478, i32 0, metadata !946, metadata !"ap_int_base", metadata !"ap_int_base", metadata !"", metadata !77, i32 1366, metadata !976, i1 false, i1 false, i32 0, i32 0, null, i32 384, i1 false, null, null, i32 0, metadata !89, i32 1366} ; [ DW_TAG_subprogram ]
!976 = metadata !{i32 786453, i32 0, metadata !"", i32 0, i32 0, i64 0, i64 0, i64 0, i32 0, null, metadata !977, i32 0, i32 0} ; [ DW_TAG_subroutine_type ]
!977 = metadata !{null, metadata !962, metadata !130}
!978 = metadata !{i32 786478, i32 0, metadata !946, metadata !"ap_int_base", metadata !"ap_int_base", metadata !"", metadata !77, i32 1367, metadata !979, i1 false, i1 false, i32 0, i32 0, null, i32 384, i1 false, null, null, i32 0, metadata !89, i32 1367} ; [ DW_TAG_subprogram ]
!979 = metadata !{i32 786453, i32 0, metadata !"", i32 0, i32 0, i64 0, i64 0, i64 0, i32 0, null, metadata !980, i32 0, i32 0} ; [ DW_TAG_subroutine_type ]
!980 = metadata !{null, metadata !962, metadata !64}
!981 = metadata !{i32 786478, i32 0, metadata !946, metadata !"ap_int_base", metadata !"ap_int_base", metadata !"", metadata !77, i32 1368, metadata !982, i1 false, i1 false, i32 0, i32 0, null, i32 384, i1 false, null, null, i32 0, metadata !89, i32 1368} ; [ DW_TAG_subprogram ]
!982 = metadata !{i32 786453, i32 0, metadata !"", i32 0, i32 0, i64 0, i64 0, i64 0, i32 0, null, metadata !983, i32 0, i32 0} ; [ DW_TAG_subroutine_type ]
!983 = metadata !{null, metadata !962, metadata !137}
!984 = metadata !{i32 786478, i32 0, metadata !946, metadata !"ap_int_base", metadata !"ap_int_base", metadata !"", metadata !77, i32 1369, metadata !985, i1 false, i1 false, i32 0, i32 0, null, i32 384, i1 false, null, null, i32 0, metadata !89, i32 1369} ; [ DW_TAG_subprogram ]
!985 = metadata !{i32 786453, i32 0, metadata !"", i32 0, i32 0, i64 0, i64 0, i64 0, i32 0, null, metadata !986, i32 0, i32 0} ; [ DW_TAG_subroutine_type ]
!986 = metadata !{null, metadata !962, metadata !141}
!987 = metadata !{i32 786478, i32 0, metadata !946, metadata !"ap_int_base", metadata !"ap_int_base", metadata !"", metadata !77, i32 1370, metadata !988, i1 false, i1 false, i32 0, i32 0, null, i32 384, i1 false, null, null, i32 0, metadata !89, i32 1370} ; [ DW_TAG_subprogram ]
!988 = metadata !{i32 786453, i32 0, metadata !"", i32 0, i32 0, i64 0, i64 0, i64 0, i32 0, null, metadata !989, i32 0, i32 0} ; [ DW_TAG_subroutine_type ]
!989 = metadata !{null, metadata !962, metadata !145}
!990 = metadata !{i32 786478, i32 0, metadata !946, metadata !"ap_int_base", metadata !"ap_int_base", metadata !"", metadata !77, i32 1371, metadata !991, i1 false, i1 false, i32 0, i32 0, null, i32 384, i1 false, null, null, i32 0, metadata !89, i32 1371} ; [ DW_TAG_subprogram ]
!991 = metadata !{i32 786453, i32 0, metadata !"", i32 0, i32 0, i64 0, i64 0, i64 0, i32 0, null, metadata !992, i32 0, i32 0} ; [ DW_TAG_subroutine_type ]
!992 = metadata !{null, metadata !962, metadata !149}
!993 = metadata !{i32 786478, i32 0, metadata !946, metadata !"ap_int_base", metadata !"ap_int_base", metadata !"", metadata !77, i32 1372, metadata !994, i1 false, i1 false, i32 0, i32 0, null, i32 384, i1 false, null, null, i32 0, metadata !89, i32 1372} ; [ DW_TAG_subprogram ]
!994 = metadata !{i32 786453, i32 0, metadata !"", i32 0, i32 0, i64 0, i64 0, i64 0, i32 0, null, metadata !995, i32 0, i32 0} ; [ DW_TAG_subroutine_type ]
!995 = metadata !{null, metadata !962, metadata !154}
!996 = metadata !{i32 786478, i32 0, metadata !946, metadata !"ap_int_base", metadata !"ap_int_base", metadata !"", metadata !77, i32 1373, metadata !997, i1 false, i1 false, i32 0, i32 0, null, i32 384, i1 false, null, null, i32 0, metadata !89, i32 1373} ; [ DW_TAG_subprogram ]
!997 = metadata !{i32 786453, i32 0, metadata !"", i32 0, i32 0, i64 0, i64 0, i64 0, i32 0, null, metadata !998, i32 0, i32 0} ; [ DW_TAG_subroutine_type ]
!998 = metadata !{null, metadata !962, metadata !159}
!999 = metadata !{i32 786478, i32 0, metadata !946, metadata !"ap_int_base", metadata !"ap_int_base", metadata !"", metadata !77, i32 1374, metadata !1000, i1 false, i1 false, i32 0, i32 0, null, i32 384, i1 false, null, null, i32 0, metadata !89, i32 1374} ; [ DW_TAG_subprogram ]
!1000 = metadata !{i32 786453, i32 0, metadata !"", i32 0, i32 0, i64 0, i64 0, i64 0, i32 0, null, metadata !1001, i32 0, i32 0} ; [ DW_TAG_subroutine_type ]
!1001 = metadata !{null, metadata !962, metadata !163}
!1002 = metadata !{i32 786478, i32 0, metadata !946, metadata !"ap_int_base", metadata !"ap_int_base", metadata !"", metadata !77, i32 1401, metadata !1003, i1 false, i1 false, i32 0, i32 0, null, i32 256, i1 false, null, null, i32 0, metadata !89, i32 1401} ; [ DW_TAG_subprogram ]
!1003 = metadata !{i32 786453, i32 0, metadata !"", i32 0, i32 0, i64 0, i64 0, i64 0, i32 0, null, metadata !1004, i32 0, i32 0} ; [ DW_TAG_subroutine_type ]
!1004 = metadata !{null, metadata !962, metadata !167}
!1005 = metadata !{i32 786478, i32 0, metadata !946, metadata !"ap_int_base", metadata !"ap_int_base", metadata !"", metadata !77, i32 1408, metadata !1006, i1 false, i1 false, i32 0, i32 0, null, i32 256, i1 false, null, null, i32 0, metadata !89, i32 1408} ; [ DW_TAG_subprogram ]
!1006 = metadata !{i32 786453, i32 0, metadata !"", i32 0, i32 0, i64 0, i64 0, i64 0, i32 0, null, metadata !1007, i32 0, i32 0} ; [ DW_TAG_subroutine_type ]
!1007 = metadata !{null, metadata !962, metadata !167, metadata !118}
!1008 = metadata !{i32 786478, i32 0, metadata !946, metadata !"read", metadata !"read", metadata !"_ZNV11ap_int_baseILi33ELb1ELb1EE4readEv", metadata !77, i32 1429, metadata !1009, i1 false, i1 false, i32 0, i32 0, null, i32 256, i1 false, null, null, i32 0, metadata !89, i32 1429} ; [ DW_TAG_subprogram ]
!1009 = metadata !{i32 786453, i32 0, metadata !"", i32 0, i32 0, i64 0, i64 0, i64 0, i32 0, null, metadata !1010, i32 0, i32 0} ; [ DW_TAG_subroutine_type ]
!1010 = metadata !{metadata !946, metadata !1011}
!1011 = metadata !{i32 786447, i32 0, metadata !"", i32 0, i32 0, i64 64, i64 64, i64 0, i32 64, metadata !1012} ; [ DW_TAG_pointer_type ]
!1012 = metadata !{i32 786485, null, metadata !"", null, i32 0, i64 0, i64 0, i64 0, i32 0, metadata !946} ; [ DW_TAG_volatile_type ]
!1013 = metadata !{i32 786478, i32 0, metadata !946, metadata !"write", metadata !"write", metadata !"_ZNV11ap_int_baseILi33ELb1ELb1EE5writeERKS0_", metadata !77, i32 1435, metadata !1014, i1 false, i1 false, i32 0, i32 0, null, i32 256, i1 false, null, null, i32 0, metadata !89, i32 1435} ; [ DW_TAG_subprogram ]
!1014 = metadata !{i32 786453, i32 0, metadata !"", i32 0, i32 0, i64 0, i64 0, i64 0, i32 0, null, metadata !1015, i32 0, i32 0} ; [ DW_TAG_subroutine_type ]
!1015 = metadata !{null, metadata !1011, metadata !1016}
!1016 = metadata !{i32 786448, null, null, null, i32 0, i64 0, i64 0, i64 0, i32 0, metadata !946} ; [ DW_TAG_reference_type ]
!1017 = metadata !{i32 786478, i32 0, metadata !946, metadata !"operator=", metadata !"operator=", metadata !"_ZNV11ap_int_baseILi33ELb1ELb1EEaSERVKS0_", metadata !77, i32 1447, metadata !1014, i1 false, i1 false, i32 0, i32 0, null, i32 256, i1 false, null, null, i32 0, metadata !89, i32 1447} ; [ DW_TAG_subprogram ]
!1018 = metadata !{i32 786478, i32 0, metadata !946, metadata !"operator=", metadata !"operator=", metadata !"_ZNV11ap_int_baseILi33ELb1ELb1EEaSERKS0_", metadata !77, i32 1456, metadata !1014, i1 false, i1 false, i32 0, i32 0, null, i32 256, i1 false, null, null, i32 0, metadata !89, i32 1456} ; [ DW_TAG_subprogram ]
!1019 = metadata !{i32 786478, i32 0, metadata !946, metadata !"operator=", metadata !"operator=", metadata !"_ZN11ap_int_baseILi33ELb1ELb1EEaSERVKS0_", metadata !77, i32 1479, metadata !1020, i1 false, i1 false, i32 0, i32 0, null, i32 256, i1 false, null, null, i32 0, metadata !89, i32 1479} ; [ DW_TAG_subprogram ]
!1020 = metadata !{i32 786453, i32 0, metadata !"", i32 0, i32 0, i64 0, i64 0, i64 0, i32 0, null, metadata !1021, i32 0, i32 0} ; [ DW_TAG_subroutine_type ]
!1021 = metadata !{metadata !1016, metadata !962, metadata !1016}
!1022 = metadata !{i32 786478, i32 0, metadata !946, metadata !"operator=", metadata !"operator=", metadata !"_ZN11ap_int_baseILi33ELb1ELb1EEaSERKS0_", metadata !77, i32 1484, metadata !1020, i1 false, i1 false, i32 0, i32 0, null, i32 256, i1 false, null, null, i32 0, metadata !89, i32 1484} ; [ DW_TAG_subprogram ]
!1023 = metadata !{i32 786478, i32 0, metadata !946, metadata !"operator=", metadata !"operator=", metadata !"_ZN11ap_int_baseILi33ELb1ELb1EEaSEPKc", metadata !77, i32 1488, metadata !1024, i1 false, i1 false, i32 0, i32 0, null, i32 256, i1 false, null, null, i32 0, metadata !89, i32 1488} ; [ DW_TAG_subprogram ]
!1024 = metadata !{i32 786453, i32 0, metadata !"", i32 0, i32 0, i64 0, i64 0, i64 0, i32 0, null, metadata !1025, i32 0, i32 0} ; [ DW_TAG_subroutine_type ]
!1025 = metadata !{metadata !1016, metadata !962, metadata !167}
!1026 = metadata !{i32 786478, i32 0, metadata !946, metadata !"set", metadata !"set", metadata !"_ZN11ap_int_baseILi33ELb1ELb1EE3setEPKca", metadata !77, i32 1496, metadata !1027, i1 false, i1 false, i32 0, i32 0, null, i32 256, i1 false, null, null, i32 0, metadata !89, i32 1496} ; [ DW_TAG_subprogram ]
!1027 = metadata !{i32 786453, i32 0, metadata !"", i32 0, i32 0, i64 0, i64 0, i64 0, i32 0, null, metadata !1028, i32 0, i32 0} ; [ DW_TAG_subroutine_type ]
!1028 = metadata !{metadata !1016, metadata !962, metadata !167, metadata !118}
!1029 = metadata !{i32 786478, i32 0, metadata !946, metadata !"operator=", metadata !"operator=", metadata !"_ZN11ap_int_baseILi33ELb1ELb1EEaSEy", metadata !77, i32 1505, metadata !1030, i1 false, i1 false, i32 0, i32 0, null, i32 256, i1 false, null, null, i32 0, metadata !89, i32 1505} ; [ DW_TAG_subprogram ]
!1030 = metadata !{i32 786453, i32 0, metadata !"", i32 0, i32 0, i64 0, i64 0, i64 0, i32 0, null, metadata !1031, i32 0, i32 0} ; [ DW_TAG_subroutine_type ]
!1031 = metadata !{metadata !1016, metadata !962, metadata !155}
!1032 = metadata !{i32 786478, i32 0, metadata !946, metadata !"operator=", metadata !"operator=", metadata !"_ZN11ap_int_baseILi33ELb1ELb1EEaSEx", metadata !77, i32 1510, metadata !1033, i1 false, i1 false, i32 0, i32 0, null, i32 256, i1 false, null, null, i32 0, metadata !89, i32 1510} ; [ DW_TAG_subprogram ]
!1033 = metadata !{i32 786453, i32 0, metadata !"", i32 0, i32 0, i64 0, i64 0, i64 0, i32 0, null, metadata !1034, i32 0, i32 0} ; [ DW_TAG_subroutine_type ]
!1034 = metadata !{metadata !1016, metadata !962, metadata !150}
!1035 = metadata !{i32 786478, i32 0, metadata !946, metadata !"operator long long", metadata !"operator long long", metadata !"_ZNK11ap_int_baseILi33ELb1ELb1EEcvxEv", metadata !77, i32 1551, metadata !1036, i1 false, i1 false, i32 0, i32 0, null, i32 256, i1 false, null, null, i32 0, metadata !89, i32 1551} ; [ DW_TAG_subprogram ]
!1036 = metadata !{i32 786453, i32 0, metadata !"", i32 0, i32 0, i64 0, i64 0, i64 0, i32 0, null, metadata !1037, i32 0, i32 0} ; [ DW_TAG_subroutine_type ]
!1037 = metadata !{metadata !1038, metadata !1039}
!1038 = metadata !{i32 786454, metadata !946, metadata !"RetType", metadata !77, i32 1307, i64 0, i64 0, i64 0, i32 0, metadata !610} ; [ DW_TAG_typedef ]
!1039 = metadata !{i32 786447, i32 0, metadata !"", i32 0, i32 0, i64 64, i64 64, i64 0, i32 64, metadata !1040} ; [ DW_TAG_pointer_type ]
!1040 = metadata !{i32 786470, null, metadata !"", null, i32 0, i64 0, i64 0, i64 0, i32 0, metadata !946} ; [ DW_TAG_const_type ]
!1041 = metadata !{i32 786478, i32 0, metadata !946, metadata !"to_bool", metadata !"to_bool", metadata !"_ZNK11ap_int_baseILi33ELb1ELb1EE7to_boolEv", metadata !77, i32 1557, metadata !1042, i1 false, i1 false, i32 0, i32 0, null, i32 256, i1 false, null, null, i32 0, metadata !89, i32 1557} ; [ DW_TAG_subprogram ]
!1042 = metadata !{i32 786453, i32 0, metadata !"", i32 0, i32 0, i64 0, i64 0, i64 0, i32 0, null, metadata !1043, i32 0, i32 0} ; [ DW_TAG_subroutine_type ]
!1043 = metadata !{metadata !99, metadata !1039}
!1044 = metadata !{i32 786478, i32 0, metadata !946, metadata !"to_int", metadata !"to_int", metadata !"_ZNK11ap_int_baseILi33ELb1ELb1EE6to_intEv", metadata !77, i32 1558, metadata !1045, i1 false, i1 false, i32 0, i32 0, null, i32 256, i1 false, null, null, i32 0, metadata !89, i32 1558} ; [ DW_TAG_subprogram ]
!1045 = metadata !{i32 786453, i32 0, metadata !"", i32 0, i32 0, i64 0, i64 0, i64 0, i32 0, null, metadata !1046, i32 0, i32 0} ; [ DW_TAG_subroutine_type ]
!1046 = metadata !{metadata !64, metadata !1039}
!1047 = metadata !{i32 786478, i32 0, metadata !946, metadata !"to_uint", metadata !"to_uint", metadata !"_ZNK11ap_int_baseILi33ELb1ELb1EE7to_uintEv", metadata !77, i32 1559, metadata !1048, i1 false, i1 false, i32 0, i32 0, null, i32 256, i1 false, null, null, i32 0, metadata !89, i32 1559} ; [ DW_TAG_subprogram ]
!1048 = metadata !{i32 786453, i32 0, metadata !"", i32 0, i32 0, i64 0, i64 0, i64 0, i32 0, null, metadata !1049, i32 0, i32 0} ; [ DW_TAG_subroutine_type ]
!1049 = metadata !{metadata !137, metadata !1039}
!1050 = metadata !{i32 786478, i32 0, metadata !946, metadata !"to_long", metadata !"to_long", metadata !"_ZNK11ap_int_baseILi33ELb1ELb1EE7to_longEv", metadata !77, i32 1560, metadata !1051, i1 false, i1 false, i32 0, i32 0, null, i32 256, i1 false, null, null, i32 0, metadata !89, i32 1560} ; [ DW_TAG_subprogram ]
!1051 = metadata !{i32 786453, i32 0, metadata !"", i32 0, i32 0, i64 0, i64 0, i64 0, i32 0, null, metadata !1052, i32 0, i32 0} ; [ DW_TAG_subroutine_type ]
!1052 = metadata !{metadata !141, metadata !1039}
!1053 = metadata !{i32 786478, i32 0, metadata !946, metadata !"to_ulong", metadata !"to_ulong", metadata !"_ZNK11ap_int_baseILi33ELb1ELb1EE8to_ulongEv", metadata !77, i32 1561, metadata !1054, i1 false, i1 false, i32 0, i32 0, null, i32 256, i1 false, null, null, i32 0, metadata !89, i32 1561} ; [ DW_TAG_subprogram ]
!1054 = metadata !{i32 786453, i32 0, metadata !"", i32 0, i32 0, i64 0, i64 0, i64 0, i32 0, null, metadata !1055, i32 0, i32 0} ; [ DW_TAG_subroutine_type ]
!1055 = metadata !{metadata !145, metadata !1039}
!1056 = metadata !{i32 786478, i32 0, metadata !946, metadata !"to_int64", metadata !"to_int64", metadata !"_ZNK11ap_int_baseILi33ELb1ELb1EE8to_int64Ev", metadata !77, i32 1562, metadata !1057, i1 false, i1 false, i32 0, i32 0, null, i32 256, i1 false, null, null, i32 0, metadata !89, i32 1562} ; [ DW_TAG_subprogram ]
